ARM GAS  C:\Users\g\AppData\Local\Temp\ccZUjAgS.s 			page 1


   1              		.cpu cortex-m0
   2              		.fpu softvfp
   3              		.eabi_attribute 20, 1
   4              		.eabi_attribute 21, 1
   5              		.eabi_attribute 23, 3
   6              		.eabi_attribute 24, 1
   7              		.eabi_attribute 25, 1
   8              		.eabi_attribute 26, 1
   9              		.eabi_attribute 30, 1
  10              		.eabi_attribute 34, 0
  11              		.eabi_attribute 18, 4
  12              		.code	16
  13              		.file	"ADC.c"
  14              		.text
  15              	.Ltext0:
  16              		.cfi_sections	.debug_frame
  17              		.section	.text.ADC_Init,"ax",%progbits
  18              		.align	2
  19              		.global	ADC_Init
  20              		.code	16
  21              		.thumb_func
  22              		.type	ADC_Init, %function
  23              	ADC_Init:
  24              	.LFB1:
  25              		.file 1 ".\\Generated_Source\\PSoC4\\ADC.c"
   1:.\Generated_Source\PSoC4/ADC.c **** /*******************************************************************************
   2:.\Generated_Source\PSoC4/ADC.c **** * File Name: ADC.c
   3:.\Generated_Source\PSoC4/ADC.c **** * Version 2.40
   4:.\Generated_Source\PSoC4/ADC.c **** *
   5:.\Generated_Source\PSoC4/ADC.c **** * Description:
   6:.\Generated_Source\PSoC4/ADC.c **** *  This file provides the source code to the API for the Sequencing Successive
   7:.\Generated_Source\PSoC4/ADC.c **** *  Approximation ADC Component Component.
   8:.\Generated_Source\PSoC4/ADC.c **** *
   9:.\Generated_Source\PSoC4/ADC.c **** * Note:
  10:.\Generated_Source\PSoC4/ADC.c **** *
  11:.\Generated_Source\PSoC4/ADC.c **** ********************************************************************************
  12:.\Generated_Source\PSoC4/ADC.c **** * Copyright 2008-2015, Cypress Semiconductor Corporation.  All rights reserved.
  13:.\Generated_Source\PSoC4/ADC.c **** * You may use this file only in accordance with the license, terms, conditions,
  14:.\Generated_Source\PSoC4/ADC.c **** * disclaimers, and limitations in the end user license agreement accompanying
  15:.\Generated_Source\PSoC4/ADC.c **** * the software package with which this file was provided.
  16:.\Generated_Source\PSoC4/ADC.c **** *******************************************************************************/
  17:.\Generated_Source\PSoC4/ADC.c **** 
  18:.\Generated_Source\PSoC4/ADC.c **** #include "ADC.h"
  19:.\Generated_Source\PSoC4/ADC.c **** 
  20:.\Generated_Source\PSoC4/ADC.c **** 
  21:.\Generated_Source\PSoC4/ADC.c **** /***************************************
  22:.\Generated_Source\PSoC4/ADC.c **** * Global data allocation
  23:.\Generated_Source\PSoC4/ADC.c **** ***************************************/
  24:.\Generated_Source\PSoC4/ADC.c **** uint8 ADC_initVar = 0u;
  25:.\Generated_Source\PSoC4/ADC.c **** volatile int16 ADC_offset[ADC_TOTAL_CHANNELS_NUM];
  26:.\Generated_Source\PSoC4/ADC.c **** volatile int32 ADC_countsPer10Volt[ADC_TOTAL_CHANNELS_NUM];   /* Gain compensation */
  27:.\Generated_Source\PSoC4/ADC.c **** 
  28:.\Generated_Source\PSoC4/ADC.c **** 
  29:.\Generated_Source\PSoC4/ADC.c **** /***************************************
  30:.\Generated_Source\PSoC4/ADC.c **** * Local data allocation
  31:.\Generated_Source\PSoC4/ADC.c **** ***************************************/
  32:.\Generated_Source\PSoC4/ADC.c **** /* Channels configuration generated by customiser */
ARM GAS  C:\Users\g\AppData\Local\Temp\ccZUjAgS.s 			page 2


  33:.\Generated_Source\PSoC4/ADC.c **** static const uint32 CYCODE ADC_channelsConfig[] = { 0x00000000u, 0x00000000u };
  34:.\Generated_Source\PSoC4/ADC.c **** 
  35:.\Generated_Source\PSoC4/ADC.c **** 
  36:.\Generated_Source\PSoC4/ADC.c **** /*******************************************************************************
  37:.\Generated_Source\PSoC4/ADC.c **** * Function Name: ADC_Start
  38:.\Generated_Source\PSoC4/ADC.c **** ********************************************************************************
  39:.\Generated_Source\PSoC4/ADC.c **** *
  40:.\Generated_Source\PSoC4/ADC.c **** * Summary:
  41:.\Generated_Source\PSoC4/ADC.c **** *  Performs all required initialization for this component
  42:.\Generated_Source\PSoC4/ADC.c **** *  and enables the power. The power will be set to the appropriate
  43:.\Generated_Source\PSoC4/ADC.c **** *  power based on the clock frequency.
  44:.\Generated_Source\PSoC4/ADC.c **** *
  45:.\Generated_Source\PSoC4/ADC.c **** * Parameters:
  46:.\Generated_Source\PSoC4/ADC.c **** *  None.
  47:.\Generated_Source\PSoC4/ADC.c **** *
  48:.\Generated_Source\PSoC4/ADC.c **** * Return:
  49:.\Generated_Source\PSoC4/ADC.c **** *  None.
  50:.\Generated_Source\PSoC4/ADC.c **** *
  51:.\Generated_Source\PSoC4/ADC.c **** * Global variables:
  52:.\Generated_Source\PSoC4/ADC.c **** *  The ADC_initVar variable is used to indicate when/if initial
  53:.\Generated_Source\PSoC4/ADC.c **** *  configuration of this component has happened. The variable is initialized to
  54:.\Generated_Source\PSoC4/ADC.c **** *  zero and set to 1 the first time ADC_Start() is called. This allows for
  55:.\Generated_Source\PSoC4/ADC.c **** *  component Re-Start without re-initialization in all subsequent calls to the
  56:.\Generated_Source\PSoC4/ADC.c **** *  ADC_Start() routine.
  57:.\Generated_Source\PSoC4/ADC.c **** *  If re-initialization of the component is required the variable should be set
  58:.\Generated_Source\PSoC4/ADC.c **** *  to zero before call of ADC_Start() routine, or the user may call
  59:.\Generated_Source\PSoC4/ADC.c **** *  ADC_Init() and ADC_Enable() as done in the
  60:.\Generated_Source\PSoC4/ADC.c **** *  ADC_Start() routine.
  61:.\Generated_Source\PSoC4/ADC.c **** *
  62:.\Generated_Source\PSoC4/ADC.c **** *******************************************************************************/
  63:.\Generated_Source\PSoC4/ADC.c **** void ADC_Start(void)
  64:.\Generated_Source\PSoC4/ADC.c **** {
  65:.\Generated_Source\PSoC4/ADC.c ****     /* If not Initialized then initialize all required hardware and software */
  66:.\Generated_Source\PSoC4/ADC.c ****     if(ADC_initVar == 0u)
  67:.\Generated_Source\PSoC4/ADC.c ****     {
  68:.\Generated_Source\PSoC4/ADC.c ****         ADC_Init();
  69:.\Generated_Source\PSoC4/ADC.c ****         ADC_initVar = 1u;
  70:.\Generated_Source\PSoC4/ADC.c ****     }
  71:.\Generated_Source\PSoC4/ADC.c ****     ADC_Enable();
  72:.\Generated_Source\PSoC4/ADC.c **** }
  73:.\Generated_Source\PSoC4/ADC.c **** 
  74:.\Generated_Source\PSoC4/ADC.c **** 
  75:.\Generated_Source\PSoC4/ADC.c **** /*******************************************************************************
  76:.\Generated_Source\PSoC4/ADC.c **** * Function Name: ADC_Init
  77:.\Generated_Source\PSoC4/ADC.c **** ********************************************************************************
  78:.\Generated_Source\PSoC4/ADC.c **** *
  79:.\Generated_Source\PSoC4/ADC.c **** * Summary:
  80:.\Generated_Source\PSoC4/ADC.c **** *  Initialize component's parameters to the parameters set by user in the
  81:.\Generated_Source\PSoC4/ADC.c **** *  customizer of the component placed onto schematic. Usually called in
  82:.\Generated_Source\PSoC4/ADC.c **** *  ADC_Start().
  83:.\Generated_Source\PSoC4/ADC.c **** *
  84:.\Generated_Source\PSoC4/ADC.c **** * Parameters:
  85:.\Generated_Source\PSoC4/ADC.c **** *  None.
  86:.\Generated_Source\PSoC4/ADC.c **** *
  87:.\Generated_Source\PSoC4/ADC.c **** * Return:
  88:.\Generated_Source\PSoC4/ADC.c **** *  None.
  89:.\Generated_Source\PSoC4/ADC.c **** *
ARM GAS  C:\Users\g\AppData\Local\Temp\ccZUjAgS.s 			page 3


  90:.\Generated_Source\PSoC4/ADC.c **** * Global variables:
  91:.\Generated_Source\PSoC4/ADC.c **** *  The ADC_offset variable is initialized.
  92:.\Generated_Source\PSoC4/ADC.c **** *
  93:.\Generated_Source\PSoC4/ADC.c **** *******************************************************************************/
  94:.\Generated_Source\PSoC4/ADC.c **** void ADC_Init(void)
  95:.\Generated_Source\PSoC4/ADC.c **** {
  26              		.loc 1 95 0
  27              		.cfi_startproc
  28 0000 10B5     		push	{r4, lr}
  29              		.cfi_def_cfa_offset 8
  30              		.cfi_offset 4, -8
  31              		.cfi_offset 14, -4
  96:.\Generated_Source\PSoC4/ADC.c ****     uint32 chNum;
  97:.\Generated_Source\PSoC4/ADC.c ****     uint32 tmpRegVal;
  98:.\Generated_Source\PSoC4/ADC.c ****     int32 counts;
  99:.\Generated_Source\PSoC4/ADC.c **** 
 100:.\Generated_Source\PSoC4/ADC.c ****     #if(ADC_TOTAL_CHANNELS_NUM > 1u)
 101:.\Generated_Source\PSoC4/ADC.c ****         static const uint8 CYCODE ADC_InputsPlacement[] =
 102:.\Generated_Source\PSoC4/ADC.c ****         {
 103:.\Generated_Source\PSoC4/ADC.c ****             (uint8)(ADC_cy_psoc4_sarmux_8__CH_0_PORT << 4u) |
 104:.\Generated_Source\PSoC4/ADC.c ****             (uint8)ADC_cy_psoc4_sarmux_8__CH_0_PIN
 105:.\Generated_Source\PSoC4/ADC.c ****             ,(uint8)(ADC_cy_psoc4_sarmux_8__CH_1_PORT << 4u) |
 106:.\Generated_Source\PSoC4/ADC.c ****              (uint8)ADC_cy_psoc4_sarmux_8__CH_1_PIN
 107:.\Generated_Source\PSoC4/ADC.c ****             #if(ADC_TOTAL_CHANNELS_NUM > 2u)
 108:.\Generated_Source\PSoC4/ADC.c ****                 ,(uint8)(ADC_cy_psoc4_sarmux_8__CH_2_PORT << 4u) |
 109:.\Generated_Source\PSoC4/ADC.c ****                  (uint8)ADC_cy_psoc4_sarmux_8__CH_2_PIN
 110:.\Generated_Source\PSoC4/ADC.c ****             #endif /* End ADC_TOTAL_CHANNELS_NUM > 2u */
 111:.\Generated_Source\PSoC4/ADC.c ****             #if(ADC_TOTAL_CHANNELS_NUM > 3u)
 112:.\Generated_Source\PSoC4/ADC.c ****                 ,(uint8)(ADC_cy_psoc4_sarmux_8__CH_3_PORT << 4u) |
 113:.\Generated_Source\PSoC4/ADC.c ****                  (uint8)ADC_cy_psoc4_sarmux_8__CH_3_PIN
 114:.\Generated_Source\PSoC4/ADC.c ****             #endif /* End ADC_TOTAL_CHANNELS_NUM > 3u */
 115:.\Generated_Source\PSoC4/ADC.c ****             #if(ADC_TOTAL_CHANNELS_NUM > 4u)
 116:.\Generated_Source\PSoC4/ADC.c ****                 ,(uint8)(ADC_cy_psoc4_sarmux_8__CH_4_PORT << 4u) |
 117:.\Generated_Source\PSoC4/ADC.c ****                  (uint8)ADC_cy_psoc4_sarmux_8__CH_4_PIN
 118:.\Generated_Source\PSoC4/ADC.c ****             #endif /* End ADC_TOTAL_CHANNELS_NUM > 4u */
 119:.\Generated_Source\PSoC4/ADC.c ****             #if(ADC_TOTAL_CHANNELS_NUM > 5u)
 120:.\Generated_Source\PSoC4/ADC.c ****                 ,(uint8)(ADC_cy_psoc4_sarmux_8__CH_5_PORT << 4u) |
 121:.\Generated_Source\PSoC4/ADC.c ****                  (uint8)ADC_cy_psoc4_sarmux_8__CH_5_PIN
 122:.\Generated_Source\PSoC4/ADC.c ****             #endif /* End ADC_TOTAL_CHANNELS_NUM > 5u */
 123:.\Generated_Source\PSoC4/ADC.c ****             #if(ADC_TOTAL_CHANNELS_NUM > 6u)
 124:.\Generated_Source\PSoC4/ADC.c ****                 ,(uint8)(ADC_cy_psoc4_sarmux_8__CH_6_PORT << 4u) |
 125:.\Generated_Source\PSoC4/ADC.c ****                  (uint8)ADC_cy_psoc4_sarmux_8__CH_6_PIN
 126:.\Generated_Source\PSoC4/ADC.c ****             #endif /* End ADC_TOTAL_CHANNELS_NUM > 6u */
 127:.\Generated_Source\PSoC4/ADC.c ****             #if(ADC_TOTAL_CHANNELS_NUM > 7u)
 128:.\Generated_Source\PSoC4/ADC.c ****                 ,(uint8)(ADC_cy_psoc4_sarmux_8__CH_7_PORT << 4u) |
 129:.\Generated_Source\PSoC4/ADC.c ****                  (uint8)ADC_cy_psoc4_sarmux_8__CH_7_PIN
 130:.\Generated_Source\PSoC4/ADC.c ****             #endif /* End ADC_TOTAL_CHANNELS_NUM > 7u */
 131:.\Generated_Source\PSoC4/ADC.c ****             #if(ADC_TOTAL_CHANNELS_NUM > 8u)
 132:.\Generated_Source\PSoC4/ADC.c ****                 ,(uint8)(ADC_cy_psoc4_sarmux_8__CH_8_PORT << 4u) |
 133:.\Generated_Source\PSoC4/ADC.c ****                  (uint8)ADC_cy_psoc4_sarmux_8__CH_8_PIN
 134:.\Generated_Source\PSoC4/ADC.c ****             #endif /* End ADC_TOTAL_CHANNELS_NUM > 8u */
 135:.\Generated_Source\PSoC4/ADC.c ****             #if(ADC_TOTAL_CHANNELS_NUM > 9u)
 136:.\Generated_Source\PSoC4/ADC.c ****                 ,(uint8)(ADC_cy_psoc4_sarmux_8__CH_9_PORT << 4u) |
 137:.\Generated_Source\PSoC4/ADC.c ****                  (uint8)ADC_cy_psoc4_sarmux_8__CH_9_PIN
 138:.\Generated_Source\PSoC4/ADC.c ****             #endif /* End ADC_TOTAL_CHANNELS_NUM > 9u */
 139:.\Generated_Source\PSoC4/ADC.c ****             #if(ADC_TOTAL_CHANNELS_NUM > 10u)
 140:.\Generated_Source\PSoC4/ADC.c ****                 ,(uint8)(ADC_cy_psoc4_sarmux_8__CH_10_PORT << 4u) |
ARM GAS  C:\Users\g\AppData\Local\Temp\ccZUjAgS.s 			page 4


 141:.\Generated_Source\PSoC4/ADC.c ****                  (uint8)ADC_cy_psoc4_sarmux_8__CH_10_PIN
 142:.\Generated_Source\PSoC4/ADC.c ****             #endif /* End ADC_TOTAL_CHANNELS_NUM > 10u */
 143:.\Generated_Source\PSoC4/ADC.c ****             #if(ADC_TOTAL_CHANNELS_NUM > 11u)
 144:.\Generated_Source\PSoC4/ADC.c ****                 ,(uint8)(ADC_cy_psoc4_sarmux_8__CH_11_PORT << 4u) |
 145:.\Generated_Source\PSoC4/ADC.c ****                  (uint8)ADC_cy_psoc4_sarmux_8__CH_11_PIN
 146:.\Generated_Source\PSoC4/ADC.c ****             #endif /* End ADC_TOTAL_CHANNELS_NUM > 11u */
 147:.\Generated_Source\PSoC4/ADC.c ****             #if(ADC_TOTAL_CHANNELS_NUM > 12u)
 148:.\Generated_Source\PSoC4/ADC.c ****                 ,(uint8)(ADC_cy_psoc4_sarmux_8__CH_12_PORT << 4u) |
 149:.\Generated_Source\PSoC4/ADC.c ****                  (uint8)ADC_cy_psoc4_sarmux_8__CH_12_PIN
 150:.\Generated_Source\PSoC4/ADC.c ****             #endif /* End ADC_TOTAL_CHANNELS_NUM > 12u */
 151:.\Generated_Source\PSoC4/ADC.c ****             #if(ADC_TOTAL_CHANNELS_NUM > 13u)
 152:.\Generated_Source\PSoC4/ADC.c ****                 ,(uint8)(ADC_cy_psoc4_sarmux_8__CH_13_PORT << 4u) |
 153:.\Generated_Source\PSoC4/ADC.c ****                  (uint8)ADC_cy_psoc4_sarmux_8__CH_13_PIN
 154:.\Generated_Source\PSoC4/ADC.c ****             #endif /* End ADC_TOTAL_CHANNELS_NUM > 13u */
 155:.\Generated_Source\PSoC4/ADC.c ****             #if(ADC_TOTAL_CHANNELS_NUM > 14u)
 156:.\Generated_Source\PSoC4/ADC.c ****                 ,(uint8)(ADC_cy_psoc4_sarmux_8__CH_14_PORT << 4u) |
 157:.\Generated_Source\PSoC4/ADC.c ****                  (uint8)ADC_cy_psoc4_sarmux_8__CH_14_PIN
 158:.\Generated_Source\PSoC4/ADC.c ****             #endif /* End ADC_TOTAL_CHANNELS_NUM > 14u */
 159:.\Generated_Source\PSoC4/ADC.c ****             #if(ADC_TOTAL_CHANNELS_NUM > 15u)
 160:.\Generated_Source\PSoC4/ADC.c ****                 ,(uint8)(ADC_cy_psoc4_sarmux_8__CH_15_PORT << 4u) |
 161:.\Generated_Source\PSoC4/ADC.c ****                  (uint8)ADC_cy_psoc4_sarmux_8__CH_15_PIN
 162:.\Generated_Source\PSoC4/ADC.c ****             #endif /* End ADC_TOTAL_CHANNELS_NUM > 15u */
 163:.\Generated_Source\PSoC4/ADC.c ****             #if(ADC_TOTAL_CHANNELS_NUM > 16u)
 164:.\Generated_Source\PSoC4/ADC.c ****                 ,(uint8)(ADC_cy_psoc4_sarmux_8__CH_16_PORT << 4u) |
 165:.\Generated_Source\PSoC4/ADC.c ****                  (uint8)ADC_cy_psoc4_sarmux_8__CH_16_PIN
 166:.\Generated_Source\PSoC4/ADC.c ****             #endif /* End ADC_TOTAL_CHANNELS_NUM > 16u */
 167:.\Generated_Source\PSoC4/ADC.c ****         };
 168:.\Generated_Source\PSoC4/ADC.c ****     #endif /* End ADC_TOTAL_CHANNELS_NUM > 1u */
 169:.\Generated_Source\PSoC4/ADC.c **** 
 170:.\Generated_Source\PSoC4/ADC.c ****     #if(ADC_IRQ_REMOVE == 0u)
 171:.\Generated_Source\PSoC4/ADC.c ****         /* Start and set interrupt vector */
 172:.\Generated_Source\PSoC4/ADC.c ****         CyIntSetPriority(ADC_INTC_NUMBER, ADC_INTC_PRIOR_NUMBER);
  32              		.loc 1 172 0
  33 0002 0E20     		mov	r0, #14
  34 0004 0321     		mov	r1, #3
  35 0006 FFF7FEFF 		bl	CyIntSetPriority
  36              	.LVL0:
 173:.\Generated_Source\PSoC4/ADC.c ****         (void)CyIntSetVector(ADC_INTC_NUMBER, &ADC_ISR);
  37              		.loc 1 173 0
  38 000a 0E20     		mov	r0, #14
  39 000c 4449     		ldr	r1, .L12
  40 000e FFF7FEFF 		bl	CyIntSetVector
  41              	.LVL1:
 174:.\Generated_Source\PSoC4/ADC.c ****     #endif   /* End ADC_IRQ_REMOVE */
 175:.\Generated_Source\PSoC4/ADC.c **** 
 176:.\Generated_Source\PSoC4/ADC.c ****     /* Init SAR and MUX registers */
 177:.\Generated_Source\PSoC4/ADC.c ****     ADC_SAR_CHAN_EN_REG = ADC_DEFAULT_EN_CHANNELS;
  42              		.loc 1 177 0
  43 0012 0322     		mov	r2, #3
  44 0014 434B     		ldr	r3, .L12+4
  45 0016 1A60     		str	r2, [r3]
 178:.\Generated_Source\PSoC4/ADC.c ****     ADC_SAR_CTRL_REG |= ADC_DEFAULT_CTRL_REG_CFG | 
 179:.\Generated_Source\PSoC4/ADC.c ****         /* Enable the SAR internal pump when global pump is enabled */
 180:.\Generated_Source\PSoC4/ADC.c ****         (((ADC_PUMP_CTRL_REG & ADC_PUMP_CTRL_ENABLED) != 0u) ? 
  46              		.loc 1 180 0
  47 0018 434B     		ldr	r3, .L12+8
  48 001a 1B68     		ldr	r3, [r3]
ARM GAS  C:\Users\g\AppData\Local\Temp\ccZUjAgS.s 			page 5


 178:.\Generated_Source\PSoC4/ADC.c ****     ADC_SAR_CTRL_REG |= ADC_DEFAULT_CTRL_REG_CFG | 
  49              		.loc 1 178 0
  50 001c 002B     		cmp	r3, #0
  51 001e 01DA     		bge	.L10
  52 0020 4249     		ldr	r1, .L12+12
  53 0022 00E0     		b	.L2
  54              	.L10:
  55 0024 4249     		ldr	r1, .L12+16
  56              	.L2:
 178:.\Generated_Source\PSoC4/ADC.c ****     ADC_SAR_CTRL_REG |= ADC_DEFAULT_CTRL_REG_CFG | 
  57              		.loc 1 178 0 is_stmt 0 discriminator 4
  58 0026 434A     		ldr	r2, .L12+20
  59 0028 1368     		ldr	r3, [r2]
  60 002a 0B43     		orr	r3, r1
  61 002c 1360     		str	r3, [r2]
 181:.\Generated_Source\PSoC4/ADC.c ****         ADC_BOOSTPUMP_EN : 0u);
 182:.\Generated_Source\PSoC4/ADC.c ****     ADC_SAR_SAMPLE_CTRL_REG = ADC_DEFAULT_SAMPLE_CTRL_REG_CFG;
  62              		.loc 1 182 0 is_stmt 1 discriminator 4
  63 002e 424A     		ldr	r2, .L12+24
  64 0030 424B     		ldr	r3, .L12+28
  65 0032 1A60     		str	r2, [r3]
 183:.\Generated_Source\PSoC4/ADC.c ****     ADC_SAR_RANGE_THRES_REG = ADC_DEFAULT_RANGE_THRES_REG_CFG;
  66              		.loc 1 183 0 discriminator 4
  67 0034 424A     		ldr	r2, .L12+32
  68 0036 434B     		ldr	r3, .L12+36
  69 0038 1A60     		str	r2, [r3]
 184:.\Generated_Source\PSoC4/ADC.c ****     ADC_SAR_RANGE_COND_REG  = ADC_COMPARE_MODE;
  70              		.loc 1 184 0 discriminator 4
  71 003a 0023     		mov	r3, #0
  72 003c 424A     		ldr	r2, .L12+40
  73 003e 1360     		str	r3, [r2]
 185:.\Generated_Source\PSoC4/ADC.c ****     ADC_SAR_SAMPLE_TIME01_REG = ADC_DEFAULT_SAMPLE_TIME01_REG_CFG;
  74              		.loc 1 185 0 discriminator 4
  75 0040 424A     		ldr	r2, .L12+44
  76 0042 4349     		ldr	r1, .L12+48
  77 0044 0A60     		str	r2, [r1]
 186:.\Generated_Source\PSoC4/ADC.c ****     ADC_SAR_SAMPLE_TIME23_REG = ADC_DEFAULT_SAMPLE_TIME23_REG_CFG;
  78              		.loc 1 186 0 discriminator 4
  79 0046 4349     		ldr	r1, .L12+52
  80 0048 0A60     		str	r2, [r1]
 187:.\Generated_Source\PSoC4/ADC.c ****     
 188:.\Generated_Source\PSoC4/ADC.c ****     /* Connect Vm to VSSA when even one channel is single-ended or multiple channels configured */
 189:.\Generated_Source\PSoC4/ADC.c ****     #if(ADC_DEFAULT_MUX_SWITCH0 != 0u)
 190:.\Generated_Source\PSoC4/ADC.c ****         ADC_MUX_SWITCH0_REG |= ADC_DEFAULT_MUX_SWITCH0;
  81              		.loc 1 190 0 discriminator 4
  82 004a 434A     		ldr	r2, .L12+56
  83 004c 1168     		ldr	r1, [r2]
  84 004e 8020     		mov	r0, #128
  85 0050 4002     		lsl	r0, r0, #9
  86 0052 0143     		orr	r1, r0
  87 0054 1160     		str	r1, [r2]
 191:.\Generated_Source\PSoC4/ADC.c ****         /* Set MUX_HW_CTRL_VSSA in MUX_SWITCH_HW_CTRL when multiple channels enabled */
 192:.\Generated_Source\PSoC4/ADC.c ****         #if(ADC_TOTAL_CHANNELS_NUM > 1u)
 193:.\Generated_Source\PSoC4/ADC.c ****             ADC_MUX_SWITCH_HW_CTRL_REG |= ADC_DEFAULT_MUX_SWITCH0;
  88              		.loc 1 193 0 discriminator 4
  89 0056 4149     		ldr	r1, .L12+60
  90 0058 0A68     		ldr	r2, [r1]
ARM GAS  C:\Users\g\AppData\Local\Temp\ccZUjAgS.s 			page 6


  91 005a 0243     		orr	r2, r0
  92 005c 0A60     		str	r2, [r1]
 194:.\Generated_Source\PSoC4/ADC.c ****         #endif /* ADC_TOTAL_CHANNELS_NUM > 1u */
 195:.\Generated_Source\PSoC4/ADC.c ****     #endif /*ADC_CHANNELS_MODE !=0 */
 196:.\Generated_Source\PSoC4/ADC.c **** 
 197:.\Generated_Source\PSoC4/ADC.c ****     ADC_SAR_SATURATE_INTR_MASK_REG = 0u;
  93              		.loc 1 197 0 discriminator 4
  94 005e 404A     		ldr	r2, .L12+64
  95 0060 1360     		str	r3, [r2]
 198:.\Generated_Source\PSoC4/ADC.c ****     ADC_SAR_RANGE_INTR_MASK_REG = 0u;
  96              		.loc 1 198 0 discriminator 4
  97 0062 404A     		ldr	r2, .L12+68
  98 0064 1360     		str	r3, [r2]
 199:.\Generated_Source\PSoC4/ADC.c ****     ADC_SAR_INTR_MASK_REG = ADC_SAR_INTR_MASK;
  99              		.loc 1 199 0 discriminator 4
 100 0066 0122     		mov	r2, #1
 101 0068 3F4B     		ldr	r3, .L12+72
 102 006a 1A60     		str	r2, [r3]
 200:.\Generated_Source\PSoC4/ADC.c **** 
 201:.\Generated_Source\PSoC4/ADC.c ****     #if(ADC_CY_SAR_IP_VER == ADC_CY_SAR_IP_VER0)
 202:.\Generated_Source\PSoC4/ADC.c ****         ADC_ANA_TRIM_REG = ADC_TRIM_COEF;
 103              		.loc 1 202 0 discriminator 4
 104 006c 0132     		add	r2, r2, #1
 105 006e 3F4B     		ldr	r3, .L12+76
 106 0070 1A60     		str	r2, [r3]
 203:.\Generated_Source\PSoC4/ADC.c ****     #endif /* (ADC_CY_SAR_IP_VER == ADC_CY_SAR_IP_VER0) */
 204:.\Generated_Source\PSoC4/ADC.c **** 
 205:.\Generated_Source\PSoC4/ADC.c ****     /* Read and modify default configuration based on characterization */
 206:.\Generated_Source\PSoC4/ADC.c ****     tmpRegVal = ADC_SAR_DFT_CTRL_REG;
 107              		.loc 1 206 0 discriminator 4
 108 0072 3F4A     		ldr	r2, .L12+80
 109 0074 1168     		ldr	r1, [r2]
 110              	.LVL2:
 207:.\Generated_Source\PSoC4/ADC.c ****     tmpRegVal &= (uint32)~ADC_DCEN;
 111              		.loc 1 207 0 discriminator 4
 112 0076 3F4B     		ldr	r3, .L12+84
 113 0078 0B40     		and	r3, r1
 114              	.LVL3:
 208:.\Generated_Source\PSoC4/ADC.c ****     
 209:.\Generated_Source\PSoC4/ADC.c ****     #if(ADC_CY_SAR_IP_VER == ADC_CY_SAR_IP_VER0)
 210:.\Generated_Source\PSoC4/ADC.c ****         #if(ADC_NOMINAL_CLOCK_FREQ > (ADC_MAX_FREQUENCY / 2))
 211:.\Generated_Source\PSoC4/ADC.c ****             tmpRegVal |= ADC_SEL_CSEL_DFT_CHAR;
 115              		.loc 1 211 0 discriminator 4
 116 007a C021     		mov	r1, #192
 117 007c 8904     		lsl	r1, r1, #18
 118 007e 0B43     		orr	r3, r1
 119              	.LVL4:
 212:.\Generated_Source\PSoC4/ADC.c ****         #else  /* clock speed < 9 Mhz */
 213:.\Generated_Source\PSoC4/ADC.c ****             tmpRegVal |= ADC_DLY_INC;
 214:.\Generated_Source\PSoC4/ADC.c ****         #endif /* clock speed > 9 Mhz */
 215:.\Generated_Source\PSoC4/ADC.c ****     #else
 216:.\Generated_Source\PSoC4/ADC.c ****         #if ((ADC_DEFAULT_VREF_SEL == ADC__INTERNAL1024) || \
 217:.\Generated_Source\PSoC4/ADC.c ****              (ADC_DEFAULT_VREF_SEL == ADC__INTERNALVREF))
 218:.\Generated_Source\PSoC4/ADC.c ****             tmpRegVal |= ADC_DLY_INC;
 219:.\Generated_Source\PSoC4/ADC.c ****         #else
 220:.\Generated_Source\PSoC4/ADC.c ****             tmpRegVal |= ADC_DCEN;
 221:.\Generated_Source\PSoC4/ADC.c ****             tmpRegVal &= (uint32)~ADC_DLY_INC;
ARM GAS  C:\Users\g\AppData\Local\Temp\ccZUjAgS.s 			page 7


 222:.\Generated_Source\PSoC4/ADC.c ****         #endif /* ((ADC_DEFAULT_VREF_SEL == ADC__INTERNAL1024) || \
 223:.\Generated_Source\PSoC4/ADC.c ****                    (ADC_DEFAULT_VREF_SEL == ADC__INTERNALVREF)) */
 224:.\Generated_Source\PSoC4/ADC.c ****     #endif /* (ADC_CY_SAR_IP_VER == ADC_CY_SAR_IP_VER0) */
 225:.\Generated_Source\PSoC4/ADC.c ****     
 226:.\Generated_Source\PSoC4/ADC.c ****     ADC_SAR_DFT_CTRL_REG = tmpRegVal;
 120              		.loc 1 226 0 discriminator 4
 121 0080 1360     		str	r3, [r2]
 122              	.LVL5:
 227:.\Generated_Source\PSoC4/ADC.c **** 
 228:.\Generated_Source\PSoC4/ADC.c ****     #if(ADC_MAX_RESOLUTION != ADC_RESOLUTION_12)
 229:.\Generated_Source\PSoC4/ADC.c ****         ADC_WOUNDING_REG = ADC_ALT_WOUNDING;
 230:.\Generated_Source\PSoC4/ADC.c ****     #endif /* ADC_MAX_RESOLUTION != ADC_RESOLUTION_12 */
 231:.\Generated_Source\PSoC4/ADC.c **** 
 232:.\Generated_Source\PSoC4/ADC.c ****     for(chNum = 0u; chNum < ADC_TOTAL_CHANNELS_NUM; chNum++)
 123              		.loc 1 232 0 discriminator 4
 124 0082 0022     		mov	r2, #0
 125 0084 49E0     		b	.L3
 126              	.LVL6:
 127              	.L9:
 233:.\Generated_Source\PSoC4/ADC.c ****     {
 234:.\Generated_Source\PSoC4/ADC.c ****         tmpRegVal = (ADC_channelsConfig[chNum] & ADC_CHANNEL_CONFIG_MASK);
 128              		.loc 1 234 0
 129 0086 3C48     		ldr	r0, .L12+88
 130 0088 9100     		lsl	r1, r2, #2
 131 008a 0C58     		ldr	r4, [r1, r0]
 132 008c DC23     		mov	r3, #220
 133 008e 9B01     		lsl	r3, r3, #6
 134 0090 2340     		and	r3, r4
 135              	.LVL7:
 235:.\Generated_Source\PSoC4/ADC.c ****         #if(ADC_TOTAL_CHANNELS_NUM > 1u)
 236:.\Generated_Source\PSoC4/ADC.c ****             tmpRegVal |= ADC_InputsPlacement[chNum];
 136              		.loc 1 236 0
 137 0092 8018     		add	r0, r0, r2
 138 0094 007A     		ldrb	r0, [r0, #8]
 139 0096 0343     		orr	r3, r0
 140              	.LVL8:
 237:.\Generated_Source\PSoC4/ADC.c ****         #endif /* End ADC_TOTAL_CHANNELS_NUM > 1u */
 238:.\Generated_Source\PSoC4/ADC.c ****         
 239:.\Generated_Source\PSoC4/ADC.c ****         
 240:.\Generated_Source\PSoC4/ADC.c ****         /* When the part is limited to 10-bit then the SUB_RESOLUTION bit
 241:.\Generated_Source\PSoC4/ADC.c ****         *  will be ignored and the RESOLUTION bit selects between 10-bit
 242:.\Generated_Source\PSoC4/ADC.c ****         *  (0) and 8-bit (1) resolution.
 243:.\Generated_Source\PSoC4/ADC.c ****         */
 244:.\Generated_Source\PSoC4/ADC.c ****         #if((ADC_MAX_RESOLUTION != ADC_RESOLUTION_12) && \
 245:.\Generated_Source\PSoC4/ADC.c ****             (ADC_ALT_WOUNDING == ADC_WOUNDING_10BIT))
 246:.\Generated_Source\PSoC4/ADC.c ****             tmpRegVal &= (uint32)(~ADC_ALT_RESOLUTION_ON);
 247:.\Generated_Source\PSoC4/ADC.c ****         #endif /* ADC_MAX_RESOLUTION != ADC_RESOLUTION_12 */
 248:.\Generated_Source\PSoC4/ADC.c **** 
 249:.\Generated_Source\PSoC4/ADC.c ****         #if(ADC_INJ_CHANNEL_ENABLED)
 250:.\Generated_Source\PSoC4/ADC.c ****         if(chNum < ADC_SEQUENCED_CHANNELS_NUM)
 251:.\Generated_Source\PSoC4/ADC.c ****         #endif /* ADC_INJ_CHANNEL_ENABLED */
 252:.\Generated_Source\PSoC4/ADC.c ****         {
 253:.\Generated_Source\PSoC4/ADC.c ****             CY_SET_REG32((reg32 *)(ADC_SAR_CHAN_CONFIG_IND + (uint32)(chNum << 2)), tmpRegVal);
 141              		.loc 1 253 0
 142 0098 3848     		ldr	r0, .L12+92
 143 009a 8446     		mov	ip, r0
 144 009c 6144     		add	r1, r1, ip
ARM GAS  C:\Users\g\AppData\Local\Temp\ccZUjAgS.s 			page 8


 145 009e 0B60     		str	r3, [r1]
 254:.\Generated_Source\PSoC4/ADC.c **** 
 255:.\Generated_Source\PSoC4/ADC.c ****             if((ADC_channelsConfig[chNum] & ADC_IS_SATURATE_EN_MASK) != 0u)
 146              		.loc 1 255 0
 147 00a0 E307     		lsl	r3, r4, #31
 148 00a2 08D5     		bpl	.L4
 149              	.LVL9:
 256:.\Generated_Source\PSoC4/ADC.c ****             {
 257:.\Generated_Source\PSoC4/ADC.c ****                 ADC_SAR_SATURATE_INTR_MASK_REG |= (uint16)((uint16)1 << chNum);
 150              		.loc 1 257 0
 151 00a4 2E48     		ldr	r0, .L12+64
 152 00a6 0468     		ldr	r4, [r0]
 153 00a8 8021     		mov	r1, #128
 154              	.LVL10:
 155 00aa 4902     		lsl	r1, r1, #9
 156 00ac 0B1C     		mov	r3, r1
 157 00ae 9340     		lsl	r3, r3, r2
 158 00b0 1B0C     		lsr	r3, r3, #16
 159 00b2 2343     		orr	r3, r4
 160 00b4 0360     		str	r3, [r0]
 161              	.LVL11:
 162              	.L4:
 258:.\Generated_Source\PSoC4/ADC.c ****             }
 259:.\Generated_Source\PSoC4/ADC.c **** 
 260:.\Generated_Source\PSoC4/ADC.c ****             if((ADC_channelsConfig[chNum] & ADC_IS_RANGE_CTRL_EN_MASK) != 0u)
 163              		.loc 1 260 0
 164 00b6 9300     		lsl	r3, r2, #2
 165 00b8 2F49     		ldr	r1, .L12+88
 166              	.LVL12:
 167 00ba 5B58     		ldr	r3, [r3, r1]
 168 00bc 9B07     		lsl	r3, r3, #30
 169 00be 08D5     		bpl	.L5
 261:.\Generated_Source\PSoC4/ADC.c ****             {
 262:.\Generated_Source\PSoC4/ADC.c ****                 ADC_SAR_RANGE_INTR_MASK_REG |= (uint16)((uint16)1 << chNum);
 170              		.loc 1 262 0
 171 00c0 2848     		ldr	r0, .L12+68
 172 00c2 0468     		ldr	r4, [r0]
 173 00c4 8021     		mov	r1, #128
 174              	.LVL13:
 175 00c6 4902     		lsl	r1, r1, #9
 176 00c8 0B1C     		mov	r3, r1
 177 00ca 9340     		lsl	r3, r3, r2
 178 00cc 1B0C     		lsr	r3, r3, #16
 179 00ce 2343     		orr	r3, r4
 180 00d0 0360     		str	r3, [r0]
 181              	.L5:
 263:.\Generated_Source\PSoC4/ADC.c ****             }
 264:.\Generated_Source\PSoC4/ADC.c ****         }
 265:.\Generated_Source\PSoC4/ADC.c ****         #if(ADC_INJ_CHANNEL_ENABLED)
 266:.\Generated_Source\PSoC4/ADC.c ****             else
 267:.\Generated_Source\PSoC4/ADC.c ****             {
 268:.\Generated_Source\PSoC4/ADC.c ****                 CY_SET_REG32(ADC_SAR_INJ_CHAN_CONFIG_PTR, tmpRegVal | ADC_INJ_TAILGATING);
 269:.\Generated_Source\PSoC4/ADC.c **** 
 270:.\Generated_Source\PSoC4/ADC.c ****                 if((ADC_channelsConfig[chNum] & ADC_IS_SATURATE_EN_MASK) != 0u)
 271:.\Generated_Source\PSoC4/ADC.c ****                 {
 272:.\Generated_Source\PSoC4/ADC.c ****                     ADC_SAR_INTR_MASK_REG |= ADC_INJ_SATURATE_MASK;
 273:.\Generated_Source\PSoC4/ADC.c ****                 }
ARM GAS  C:\Users\g\AppData\Local\Temp\ccZUjAgS.s 			page 9


 274:.\Generated_Source\PSoC4/ADC.c **** 
 275:.\Generated_Source\PSoC4/ADC.c ****                 if((ADC_channelsConfig[chNum] & ADC_IS_RANGE_CTRL_EN_MASK) != 0u)
 276:.\Generated_Source\PSoC4/ADC.c ****                 {
 277:.\Generated_Source\PSoC4/ADC.c ****                     ADC_SAR_INTR_MASK_REG |= ADC_INJ_RANGE_MASK;
 278:.\Generated_Source\PSoC4/ADC.c ****                 }
 279:.\Generated_Source\PSoC4/ADC.c ****             }
 280:.\Generated_Source\PSoC4/ADC.c ****         #endif /* ADC_INJ_CHANNEL_ENABLED */
 281:.\Generated_Source\PSoC4/ADC.c **** 
 282:.\Generated_Source\PSoC4/ADC.c ****         if((ADC_channelsConfig[chNum] & ADC_ALT_RESOLUTION_ON) != 0u)
 182              		.loc 1 282 0
 183 00d2 9300     		lsl	r3, r2, #2
 184 00d4 2849     		ldr	r1, .L12+88
 185              	.LVL14:
 186 00d6 5958     		ldr	r1, [r3, r1]
 187              	.LVL15:
 188 00d8 8B05     		lsl	r3, r1, #22
 189 00da 02D5     		bpl	.L11
 283:.\Generated_Source\PSoC4/ADC.c ****         {
 284:.\Generated_Source\PSoC4/ADC.c ****                counts = (int32)ADC_DEFAULT_MAX_WRK_ALT;
 190              		.loc 1 284 0
 191 00dc 8020     		mov	r0, #128
 192 00de 4000     		lsl	r0, r0, #1
 193 00e0 01E0     		b	.L6
 194              	.L11:
 285:.\Generated_Source\PSoC4/ADC.c ****         }
 286:.\Generated_Source\PSoC4/ADC.c ****         else
 287:.\Generated_Source\PSoC4/ADC.c ****         {
 288:.\Generated_Source\PSoC4/ADC.c ****                counts = (int32)ADC_SAR_WRK_MAX_12BIT;
 195              		.loc 1 288 0
 196 00e2 8020     		mov	r0, #128
 197 00e4 4001     		lsl	r0, r0, #5
 198              	.L6:
 199              	.LVL16:
 289:.\Generated_Source\PSoC4/ADC.c ****         }
 290:.\Generated_Source\PSoC4/ADC.c **** 
 291:.\Generated_Source\PSoC4/ADC.c ****         if((ADC_channelsConfig[chNum] & ADC_DIFFERENTIAL_EN) == 0u)
 200              		.loc 1 291 0
 201 00e6 CB05     		lsl	r3, r1, #23
 202 00e8 04D4     		bmi	.L7
 292:.\Generated_Source\PSoC4/ADC.c ****         {
 293:.\Generated_Source\PSoC4/ADC.c ****             #if((ADC_DEFAULT_SE_RESULT_FORMAT_SEL == ADC__FSIGNED) && \
 294:.\Generated_Source\PSoC4/ADC.c ****                 (ADC_DEFAULT_NEG_INPUT_SEL == ADC__VREF))
 295:.\Generated_Source\PSoC4/ADC.c ****                 /* Set offset to the minus half scale to convert results to unsigned format */
 296:.\Generated_Source\PSoC4/ADC.c ****                 ADC_offset[chNum] = (int16)(counts / -2);
 297:.\Generated_Source\PSoC4/ADC.c ****             #else
 298:.\Generated_Source\PSoC4/ADC.c ****                 ADC_offset[chNum] = 0;
 203              		.loc 1 298 0
 204 00ea 5300     		lsl	r3, r2, #1
 205 00ec 0024     		mov	r4, #0
 206 00ee 2449     		ldr	r1, .L12+96
 207 00f0 5C52     		strh	r4, [r3, r1]
 208 00f2 03E0     		b	.L8
 209              	.L7:
 299:.\Generated_Source\PSoC4/ADC.c ****             #endif /* end DEFAULT_SE_RESULT_FORMAT_SEL == ADC__FSIGNED */
 300:.\Generated_Source\PSoC4/ADC.c ****         }
 301:.\Generated_Source\PSoC4/ADC.c ****         else    /* Differential channel */
 302:.\Generated_Source\PSoC4/ADC.c ****         {
ARM GAS  C:\Users\g\AppData\Local\Temp\ccZUjAgS.s 			page 10


 303:.\Generated_Source\PSoC4/ADC.c ****             #if(ADC_DEFAULT_DIFF_RESULT_FORMAT_SEL == ADC__FUNSIGNED)
 304:.\Generated_Source\PSoC4/ADC.c ****                 /* Set offset to the half scale to convert results to signed format */
 305:.\Generated_Source\PSoC4/ADC.c ****                 ADC_offset[chNum] = (int16)(counts / 2);
 306:.\Generated_Source\PSoC4/ADC.c ****             #else
 307:.\Generated_Source\PSoC4/ADC.c ****                 ADC_offset[chNum] = 0;
 210              		.loc 1 307 0
 211 00f4 5300     		lsl	r3, r2, #1
 212 00f6 0024     		mov	r4, #0
 213 00f8 2149     		ldr	r1, .L12+96
 214 00fa 5C52     		strh	r4, [r3, r1]
 215              	.L8:
 308:.\Generated_Source\PSoC4/ADC.c ****             #endif /* end ADC_DEFAULT_DIFF_RESULT_FORMAT_SEL == ADC__FUNSIGNED */
 309:.\Generated_Source\PSoC4/ADC.c ****         }
 310:.\Generated_Source\PSoC4/ADC.c ****         /* Calculate gain in counts per 10 volts with rounding */
 311:.\Generated_Source\PSoC4/ADC.c ****         ADC_countsPer10Volt[chNum] = (int16)(((counts * ADC_10MV_COUNTS) +
 216              		.loc 1 311 0 discriminator 2
 217 00fc 214B     		ldr	r3, .L12+100
 218 00fe 4343     		mul	r3, r0
 219 0100 8021     		mov	r1, #128
 220 0102 C900     		lsl	r1, r1, #3
 221 0104 8C46     		mov	ip, r1
 222 0106 6344     		add	r3, r3, ip
 312:.\Generated_Source\PSoC4/ADC.c ****                             ADC_DEFAULT_VREF_MV_VALUE) / (ADC_DEFAULT_VREF_MV_VALUE * 2));
 223              		.loc 1 312 0 discriminator 2
 224 0108 D917     		asr	r1, r3, #31
 225 010a 490D     		lsr	r1, r1, #21
 226 010c CB18     		add	r3, r1, r3
 227 010e DB12     		asr	r3, r3, #11
 311:.\Generated_Source\PSoC4/ADC.c ****                             ADC_DEFAULT_VREF_MV_VALUE) / (ADC_DEFAULT_VREF_MV_VALUE * 2));
 228              		.loc 1 311 0 discriminator 2
 229 0110 1BB2     		sxth	r3, r3
 230 0112 9000     		lsl	r0, r2, #2
 231              	.LVL17:
 232 0114 1C49     		ldr	r1, .L12+104
 233 0116 4350     		str	r3, [r0, r1]
 232:.\Generated_Source\PSoC4/ADC.c ****     {
 234              		.loc 1 232 0 discriminator 2
 235 0118 0132     		add	r2, r2, #1
 236              	.LVL18:
 237              	.L3:
 232:.\Generated_Source\PSoC4/ADC.c ****     {
 238              		.loc 1 232 0 is_stmt 0 discriminator 1
 239 011a 012A     		cmp	r2, #1
 240 011c B3D9     		bls	.L9
 313:.\Generated_Source\PSoC4/ADC.c ****     }
 314:.\Generated_Source\PSoC4/ADC.c **** }
 241              		.loc 1 314 0 is_stmt 1
 242              		@ sp needed
 243 011e 10BD     		pop	{r4, pc}
 244              	.L13:
 245              		.align	2
 246              	.L12:
 247 0120 00000000 		.word	ADC_ISR
 248 0124 20001A40 		.word	1075445792
 249 0128 80031A40 		.word	1075446656
 250 012c C0201010 		.word	269492416
 251 0130 C0200010 		.word	268443840
ARM GAS  C:\Users\g\AppData\Local\Temp\ccZUjAgS.s 			page 11


 252 0134 00001A40 		.word	1075445760
 253 0138 AC000A80 		.word	-2146828116
 254 013c 04001A40 		.word	1075445764
 255 0140 0000FF07 		.word	134152192
 256 0144 18001A40 		.word	1075445784
 257 0148 1C001A40 		.word	1075445788
 258 014c 04000400 		.word	262148
 259 0150 10001A40 		.word	1075445776
 260 0154 14001A40 		.word	1075445780
 261 0158 00031A40 		.word	1075446528
 262 015c 40031A40 		.word	1075446592
 263 0160 28021A40 		.word	1075446312
 264 0164 38021A40 		.word	1075446328
 265 0168 18021A40 		.word	1075446296
 266 016c 000F1A40 		.word	1075449600
 267 0170 30001A40 		.word	1075445808
 268 0174 FFFFFFDF 		.word	-536870913
 269 0178 00000000 		.word	.LANCHOR0
 270 017c 80001A40 		.word	1075445888
 271 0180 00000000 		.word	ADC_offset
 272 0184 10270000 		.word	10000
 273 0188 00000000 		.word	ADC_countsPer10Volt
 274              		.cfi_endproc
 275              	.LFE1:
 276              		.size	ADC_Init, .-ADC_Init
 277              		.section	.text.ADC_Enable,"ax",%progbits
 278              		.align	2
 279              		.global	ADC_Enable
 280              		.code	16
 281              		.thumb_func
 282              		.type	ADC_Enable, %function
 283              	ADC_Enable:
 284              	.LFB2:
 315:.\Generated_Source\PSoC4/ADC.c **** 
 316:.\Generated_Source\PSoC4/ADC.c **** /*******************************************************************************
 317:.\Generated_Source\PSoC4/ADC.c **** * Function Name: ADC_SAR_1_Enable
 318:.\Generated_Source\PSoC4/ADC.c **** ********************************************************************************
 319:.\Generated_Source\PSoC4/ADC.c **** *
 320:.\Generated_Source\PSoC4/ADC.c **** * Summary:
 321:.\Generated_Source\PSoC4/ADC.c **** *  Enables the clock and analog power for SAR ADC.
 322:.\Generated_Source\PSoC4/ADC.c **** *
 323:.\Generated_Source\PSoC4/ADC.c **** * Parameters:
 324:.\Generated_Source\PSoC4/ADC.c **** *  None.
 325:.\Generated_Source\PSoC4/ADC.c **** *
 326:.\Generated_Source\PSoC4/ADC.c **** * Return:
 327:.\Generated_Source\PSoC4/ADC.c **** *  None.
 328:.\Generated_Source\PSoC4/ADC.c **** *
 329:.\Generated_Source\PSoC4/ADC.c **** *******************************************************************************/
 330:.\Generated_Source\PSoC4/ADC.c **** void ADC_Enable(void)
 331:.\Generated_Source\PSoC4/ADC.c **** {
 285              		.loc 1 331 0
 286              		.cfi_startproc
 287 0000 08B5     		push	{r3, lr}
 288              		.cfi_def_cfa_offset 8
 289              		.cfi_offset 3, -8
 290              		.cfi_offset 14, -4
 332:.\Generated_Source\PSoC4/ADC.c ****     if (0u == (ADC_SAR_CTRL_REG & ADC_ENABLE))
ARM GAS  C:\Users\g\AppData\Local\Temp\ccZUjAgS.s 			page 12


 291              		.loc 1 332 0
 292 0002 074B     		ldr	r3, .L16
 293 0004 1B68     		ldr	r3, [r3]
 294 0006 002B     		cmp	r3, #0
 295 0008 08DB     		blt	.L14
 333:.\Generated_Source\PSoC4/ADC.c ****     {
 334:.\Generated_Source\PSoC4/ADC.c ****         #if(ADC_CY_SAR_IP_VER != ADC_CY_SAR_IP_VER0)
 335:.\Generated_Source\PSoC4/ADC.c **** 
 336:.\Generated_Source\PSoC4/ADC.c ****             while (0u != (ADC_SAR_STATUS_REG & ADC_STATUS_BUSY))
 337:.\Generated_Source\PSoC4/ADC.c ****             {
 338:.\Generated_Source\PSoC4/ADC.c ****                 /* wait for SAR to go idle to avoid deadlock */
 339:.\Generated_Source\PSoC4/ADC.c ****             }
 340:.\Generated_Source\PSoC4/ADC.c ****         #endif /* (ADC_CY_SAR_IP_VER != ADC_CY_SAR_IP_VER0) */
 341:.\Generated_Source\PSoC4/ADC.c ****         
 342:.\Generated_Source\PSoC4/ADC.c ****         ADC_SAR_CTRL_REG |= ADC_ENABLE;
 296              		.loc 1 342 0
 297 000a 054A     		ldr	r2, .L16
 298 000c 1368     		ldr	r3, [r2]
 299 000e 8021     		mov	r1, #128
 300 0010 0906     		lsl	r1, r1, #24
 301 0012 0B43     		orr	r3, r1
 302 0014 1360     		str	r3, [r2]
 343:.\Generated_Source\PSoC4/ADC.c ****         
 344:.\Generated_Source\PSoC4/ADC.c ****         /* The block is ready to use 10 us after the enable signal is set high. */
 345:.\Generated_Source\PSoC4/ADC.c ****         CyDelayUs(ADC_10US_DELAY);         
 303              		.loc 1 345 0
 304 0016 0A20     		mov	r0, #10
 305 0018 FFF7FEFF 		bl	CyDelayUs
 306              	.LVL19:
 307              	.L14:
 346:.\Generated_Source\PSoC4/ADC.c ****     }
 347:.\Generated_Source\PSoC4/ADC.c **** }
 308              		.loc 1 347 0
 309              		@ sp needed
 310 001c 08BD     		pop	{r3, pc}
 311              	.L17:
 312 001e C046     		.align	2
 313              	.L16:
 314 0020 00001A40 		.word	1075445760
 315              		.cfi_endproc
 316              	.LFE2:
 317              		.size	ADC_Enable, .-ADC_Enable
 318              		.section	.text.ADC_Start,"ax",%progbits
 319              		.align	2
 320              		.global	ADC_Start
 321              		.code	16
 322              		.thumb_func
 323              		.type	ADC_Start, %function
 324              	ADC_Start:
 325              	.LFB0:
  64:.\Generated_Source\PSoC4/ADC.c ****     /* If not Initialized then initialize all required hardware and software */
 326              		.loc 1 64 0
 327              		.cfi_startproc
 328 0000 08B5     		push	{r3, lr}
 329              		.cfi_def_cfa_offset 8
 330              		.cfi_offset 3, -8
 331              		.cfi_offset 14, -4
ARM GAS  C:\Users\g\AppData\Local\Temp\ccZUjAgS.s 			page 13


  66:.\Generated_Source\PSoC4/ADC.c ****     {
 332              		.loc 1 66 0
 333 0002 064B     		ldr	r3, .L20
 334 0004 1B78     		ldrb	r3, [r3]
 335 0006 002B     		cmp	r3, #0
 336 0008 04D1     		bne	.L19
  68:.\Generated_Source\PSoC4/ADC.c ****         ADC_initVar = 1u;
 337              		.loc 1 68 0
 338 000a FFF7FEFF 		bl	ADC_Init
 339              	.LVL20:
  69:.\Generated_Source\PSoC4/ADC.c ****     }
 340              		.loc 1 69 0
 341 000e 0122     		mov	r2, #1
 342 0010 024B     		ldr	r3, .L20
 343 0012 1A70     		strb	r2, [r3]
 344              	.L19:
  71:.\Generated_Source\PSoC4/ADC.c **** }
 345              		.loc 1 71 0
 346 0014 FFF7FEFF 		bl	ADC_Enable
 347              	.LVL21:
  72:.\Generated_Source\PSoC4/ADC.c **** 
 348              		.loc 1 72 0
 349              		@ sp needed
 350 0018 08BD     		pop	{r3, pc}
 351              	.L21:
 352 001a C046     		.align	2
 353              	.L20:
 354 001c 00000000 		.word	.LANCHOR1
 355              		.cfi_endproc
 356              	.LFE0:
 357              		.size	ADC_Start, .-ADC_Start
 358              		.section	.text.ADC_Stop,"ax",%progbits
 359              		.align	2
 360              		.global	ADC_Stop
 361              		.code	16
 362              		.thumb_func
 363              		.type	ADC_Stop, %function
 364              	ADC_Stop:
 365              	.LFB3:
 348:.\Generated_Source\PSoC4/ADC.c **** 
 349:.\Generated_Source\PSoC4/ADC.c **** 
 350:.\Generated_Source\PSoC4/ADC.c **** /*******************************************************************************
 351:.\Generated_Source\PSoC4/ADC.c **** * Function Name: ADC_Stop
 352:.\Generated_Source\PSoC4/ADC.c **** ********************************************************************************
 353:.\Generated_Source\PSoC4/ADC.c **** *
 354:.\Generated_Source\PSoC4/ADC.c **** * Summary:
 355:.\Generated_Source\PSoC4/ADC.c **** *  This function stops ADC conversions and puts the ADC into its lowest power
 356:.\Generated_Source\PSoC4/ADC.c **** *  mode.
 357:.\Generated_Source\PSoC4/ADC.c **** *
 358:.\Generated_Source\PSoC4/ADC.c **** * Parameters:
 359:.\Generated_Source\PSoC4/ADC.c **** *  None.
 360:.\Generated_Source\PSoC4/ADC.c **** *
 361:.\Generated_Source\PSoC4/ADC.c **** * Return:
 362:.\Generated_Source\PSoC4/ADC.c **** *  None.
 363:.\Generated_Source\PSoC4/ADC.c **** *
 364:.\Generated_Source\PSoC4/ADC.c **** *******************************************************************************/
 365:.\Generated_Source\PSoC4/ADC.c **** void ADC_Stop(void)
ARM GAS  C:\Users\g\AppData\Local\Temp\ccZUjAgS.s 			page 14


 366:.\Generated_Source\PSoC4/ADC.c **** {
 366              		.loc 1 366 0
 367              		.cfi_startproc
 367:.\Generated_Source\PSoC4/ADC.c ****     ADC_SAR_CTRL_REG &= (uint32)~ADC_ENABLE;
 368              		.loc 1 367 0
 369 0000 024A     		ldr	r2, .L23
 370 0002 1368     		ldr	r3, [r2]
 371 0004 5B00     		lsl	r3, r3, #1
 372 0006 5B08     		lsr	r3, r3, #1
 373 0008 1360     		str	r3, [r2]
 368:.\Generated_Source\PSoC4/ADC.c **** }
 374              		.loc 1 368 0
 375              		@ sp needed
 376 000a 7047     		bx	lr
 377              	.L24:
 378              		.align	2
 379              	.L23:
 380 000c 00001A40 		.word	1075445760
 381              		.cfi_endproc
 382              	.LFE3:
 383              		.size	ADC_Stop, .-ADC_Stop
 384              		.section	.text.ADC_StartConvert,"ax",%progbits
 385              		.align	2
 386              		.global	ADC_StartConvert
 387              		.code	16
 388              		.thumb_func
 389              		.type	ADC_StartConvert, %function
 390              	ADC_StartConvert:
 391              	.LFB4:
 369:.\Generated_Source\PSoC4/ADC.c **** 
 370:.\Generated_Source\PSoC4/ADC.c **** 
 371:.\Generated_Source\PSoC4/ADC.c **** /*******************************************************************************
 372:.\Generated_Source\PSoC4/ADC.c **** * Function Name: ADC_StartConvert
 373:.\Generated_Source\PSoC4/ADC.c **** ********************************************************************************
 374:.\Generated_Source\PSoC4/ADC.c **** *
 375:.\Generated_Source\PSoC4/ADC.c **** * Summary:
 376:.\Generated_Source\PSoC4/ADC.c **** *  Description:
 377:.\Generated_Source\PSoC4/ADC.c **** *  For free running mode, this API starts the conversion process and it
 378:.\Generated_Source\PSoC4/ADC.c **** *  runs continuously.
 379:.\Generated_Source\PSoC4/ADC.c **** *
 380:.\Generated_Source\PSoC4/ADC.c **** *  In a triggered mode, this routine triggers every conversion by
 381:.\Generated_Source\PSoC4/ADC.c **** *  writing into the FW_TRIGGER bit in SAR_START_CTRL reg. In triggered mode,
 382:.\Generated_Source\PSoC4/ADC.c **** *  every conversion has to start by this API.
 383:.\Generated_Source\PSoC4/ADC.c **** *
 384:.\Generated_Source\PSoC4/ADC.c **** * Parameters:
 385:.\Generated_Source\PSoC4/ADC.c **** *  None.
 386:.\Generated_Source\PSoC4/ADC.c **** *
 387:.\Generated_Source\PSoC4/ADC.c **** * Return:
 388:.\Generated_Source\PSoC4/ADC.c **** *  None.
 389:.\Generated_Source\PSoC4/ADC.c **** *
 390:.\Generated_Source\PSoC4/ADC.c **** *******************************************************************************/
 391:.\Generated_Source\PSoC4/ADC.c **** void ADC_StartConvert(void)
 392:.\Generated_Source\PSoC4/ADC.c **** {
 392              		.loc 1 392 0
 393              		.cfi_startproc
 393:.\Generated_Source\PSoC4/ADC.c ****     #if(ADC_DEFAULT_SAMPLE_MODE_SEL == ADC__FREERUNNING)
 394:.\Generated_Source\PSoC4/ADC.c ****         ADC_SAR_SAMPLE_CTRL_REG |= ADC_CONTINUOUS_EN;
ARM GAS  C:\Users\g\AppData\Local\Temp\ccZUjAgS.s 			page 15


 395:.\Generated_Source\PSoC4/ADC.c ****     #else /* Firmware trigger */
 396:.\Generated_Source\PSoC4/ADC.c ****         ADC_SAR_START_CTRL_REG = ADC_FW_TRIGGER;
 394              		.loc 1 396 0
 395 0000 0122     		mov	r2, #1
 396 0002 014B     		ldr	r3, .L26
 397 0004 1A60     		str	r2, [r3]
 397:.\Generated_Source\PSoC4/ADC.c ****     #endif /* End ADC_DEFAULT_SAMPLE_MODE == ADC__FREERUNNING */
 398:.\Generated_Source\PSoC4/ADC.c **** 
 399:.\Generated_Source\PSoC4/ADC.c **** }
 398              		.loc 1 399 0
 399              		@ sp needed
 400 0006 7047     		bx	lr
 401              	.L27:
 402              		.align	2
 403              	.L26:
 404 0008 24001A40 		.word	1075445796
 405              		.cfi_endproc
 406              	.LFE4:
 407              		.size	ADC_StartConvert, .-ADC_StartConvert
 408              		.section	.text.ADC_StopConvert,"ax",%progbits
 409              		.align	2
 410              		.global	ADC_StopConvert
 411              		.code	16
 412              		.thumb_func
 413              		.type	ADC_StopConvert, %function
 414              	ADC_StopConvert:
 415              	.LFB5:
 400:.\Generated_Source\PSoC4/ADC.c **** 
 401:.\Generated_Source\PSoC4/ADC.c **** 
 402:.\Generated_Source\PSoC4/ADC.c **** /*******************************************************************************
 403:.\Generated_Source\PSoC4/ADC.c **** * Function Name: ADC_StopConvert
 404:.\Generated_Source\PSoC4/ADC.c **** ********************************************************************************
 405:.\Generated_Source\PSoC4/ADC.c **** *
 406:.\Generated_Source\PSoC4/ADC.c **** * Summary:
 407:.\Generated_Source\PSoC4/ADC.c **** *  Forces the ADC to stop all conversions.
 408:.\Generated_Source\PSoC4/ADC.c **** *
 409:.\Generated_Source\PSoC4/ADC.c **** * Parameters:
 410:.\Generated_Source\PSoC4/ADC.c **** *  None.
 411:.\Generated_Source\PSoC4/ADC.c **** *
 412:.\Generated_Source\PSoC4/ADC.c **** * Return:
 413:.\Generated_Source\PSoC4/ADC.c **** *  None.
 414:.\Generated_Source\PSoC4/ADC.c **** *
 415:.\Generated_Source\PSoC4/ADC.c **** *******************************************************************************/
 416:.\Generated_Source\PSoC4/ADC.c **** void ADC_StopConvert(void)
 417:.\Generated_Source\PSoC4/ADC.c **** {
 416              		.loc 1 417 0
 417              		.cfi_startproc
 418:.\Generated_Source\PSoC4/ADC.c ****     #if(ADC_DEFAULT_SAMPLE_MODE_SEL == ADC__FREERUNNING)
 419:.\Generated_Source\PSoC4/ADC.c ****         ADC_SAR_SAMPLE_CTRL_REG &= (uint32)(~ADC_CONTINUOUS_EN);
 420:.\Generated_Source\PSoC4/ADC.c ****     #endif /* ADC_DEFAULT_SAMPLE_MODE == ADC__FREERUNNING */
 421:.\Generated_Source\PSoC4/ADC.c **** }
 418              		.loc 1 421 0
 419              		@ sp needed
 420 0000 7047     		bx	lr
 421              		.cfi_endproc
 422              	.LFE5:
 423              		.size	ADC_StopConvert, .-ADC_StopConvert
ARM GAS  C:\Users\g\AppData\Local\Temp\ccZUjAgS.s 			page 16


 424 0002 C046     		.section	.text.ADC_IsEndConversion,"ax",%progbits
 425              		.align	2
 426              		.global	ADC_IsEndConversion
 427              		.code	16
 428              		.thumb_func
 429              		.type	ADC_IsEndConversion, %function
 430              	ADC_IsEndConversion:
 431              	.LFB6:
 422:.\Generated_Source\PSoC4/ADC.c **** 
 423:.\Generated_Source\PSoC4/ADC.c **** 
 424:.\Generated_Source\PSoC4/ADC.c **** /*******************************************************************************
 425:.\Generated_Source\PSoC4/ADC.c **** * Function Name: ADC_IsEndConversion
 426:.\Generated_Source\PSoC4/ADC.c **** ********************************************************************************
 427:.\Generated_Source\PSoC4/ADC.c **** *
 428:.\Generated_Source\PSoC4/ADC.c **** * Summary:
 429:.\Generated_Source\PSoC4/ADC.c **** *  Description: Checks for ADC end of conversion for the case one
 430:.\Generated_Source\PSoC4/ADC.c **** *  channel and end of scan for the case of multiple channels. It acts
 431:.\Generated_Source\PSoC4/ADC.c **** *  as a software version of the EOC. This function provides the
 432:.\Generated_Source\PSoC4/ADC.c **** *  programmer with two options. In one mode this function
 433:.\Generated_Source\PSoC4/ADC.c **** *  immediately returns with the conversion status. In the other mode,
 434:.\Generated_Source\PSoC4/ADC.c **** *  the function does not return (blocking) until the conversion has
 435:.\Generated_Source\PSoC4/ADC.c **** *  completed.
 436:.\Generated_Source\PSoC4/ADC.c **** *
 437:.\Generated_Source\PSoC4/ADC.c **** * Parameters:
 438:.\Generated_Source\PSoC4/ADC.c **** *  ADC_RETURN_STATUS        -> Immediately returns conversion result status
 439:.\Generated_Source\PSoC4/ADC.c **** *  ADC_WAIT_FOR_RESULT      -> Does not return until ADC complete
 440:.\Generated_Source\PSoC4/ADC.c **** *  ADC_RETURN_STATUS_INJ    -> Immediately returns conversion result status
 441:.\Generated_Source\PSoC4/ADC.c **** *                              for injection channel
 442:.\Generated_Source\PSoC4/ADC.c **** *  ADC_WAIT_FOR_RESULT_INJ  -> Does not return until ADC completes injection
 443:.\Generated_Source\PSoC4/ADC.c **** *                              channel conversion
 444:.\Generated_Source\PSoC4/ADC.c **** *
 445:.\Generated_Source\PSoC4/ADC.c **** * Return:
 446:.\Generated_Source\PSoC4/ADC.c **** *  If a non-zero value is returned, the last conversion or scan has completed.
 447:.\Generated_Source\PSoC4/ADC.c **** *  If the returned value is zero, the ADC is still in the process of a scan.
 448:.\Generated_Source\PSoC4/ADC.c **** *
 449:.\Generated_Source\PSoC4/ADC.c **** *******************************************************************************/
 450:.\Generated_Source\PSoC4/ADC.c **** uint32 ADC_IsEndConversion(uint32 retMode)
 451:.\Generated_Source\PSoC4/ADC.c **** {
 432              		.loc 1 451 0
 433              		.cfi_startproc
 434              	.LVL22:
 435 0000 021C     		mov	r2, r0
 436              	.LVL23:
 452:.\Generated_Source\PSoC4/ADC.c ****     uint32 status = 0u;
 453:.\Generated_Source\PSoC4/ADC.c **** 
 454:.\Generated_Source\PSoC4/ADC.c ****     if((retMode & (ADC_RETURN_STATUS | ADC_WAIT_FOR_RESULT)) != 0u)
 437              		.loc 1 454 0
 438 0002 8307     		lsl	r3, r0, #30
 439 0004 0CD0     		beq	.L33
 440              	.LVL24:
 441              	.L32:
 455:.\Generated_Source\PSoC4/ADC.c ****     {
 456:.\Generated_Source\PSoC4/ADC.c ****         do
 457:.\Generated_Source\PSoC4/ADC.c ****         {
 458:.\Generated_Source\PSoC4/ADC.c ****             status = ADC_SAR_INTR_REG & ADC_EOS_MASK;
 442              		.loc 1 458 0 discriminator 2
 443 0006 074B     		ldr	r3, .L34
ARM GAS  C:\Users\g\AppData\Local\Temp\ccZUjAgS.s 			page 17


 444 0008 1B68     		ldr	r3, [r3]
 445 000a 0120     		mov	r0, #1
 446 000c 1840     		and	r0, r3
 447              	.LVL25:
 459:.\Generated_Source\PSoC4/ADC.c ****         }while((status == 0u) && ((retMode & ADC_WAIT_FOR_RESULT) != 0u));
 448              		.loc 1 459 0 discriminator 2
 449 000e 01D1     		bne	.L31
 450              		.loc 1 459 0 is_stmt 0 discriminator 1
 451 0010 9307     		lsl	r3, r2, #30
 452 0012 F8D4     		bmi	.L32
 453              	.L31:
 460:.\Generated_Source\PSoC4/ADC.c **** 
 461:.\Generated_Source\PSoC4/ADC.c ****         if(status != 0u)
 454              		.loc 1 461 0 is_stmt 1
 455 0014 0028     		cmp	r0, #0
 456 0016 04D0     		beq	.L30
 462:.\Generated_Source\PSoC4/ADC.c ****         {
 463:.\Generated_Source\PSoC4/ADC.c ****             /* Clear EOS bit */
 464:.\Generated_Source\PSoC4/ADC.c ****             ADC_SAR_INTR_REG = ADC_EOS_MASK;
 457              		.loc 1 464 0
 458 0018 0122     		mov	r2, #1
 459              	.LVL26:
 460 001a 024B     		ldr	r3, .L34
 461 001c 1A60     		str	r2, [r3]
 462 001e 00E0     		b	.L30
 463              	.LVL27:
 464              	.L33:
 452:.\Generated_Source\PSoC4/ADC.c **** 
 465              		.loc 1 452 0
 466 0020 0020     		mov	r0, #0
 467              	.LVL28:
 468              	.L30:
 465:.\Generated_Source\PSoC4/ADC.c ****         }
 466:.\Generated_Source\PSoC4/ADC.c ****     }
 467:.\Generated_Source\PSoC4/ADC.c **** 
 468:.\Generated_Source\PSoC4/ADC.c ****     #if(ADC_INJ_CHANNEL_ENABLED)
 469:.\Generated_Source\PSoC4/ADC.c ****         if((retMode & (ADC_RETURN_STATUS_INJ | ADC_WAIT_FOR_RESULT_INJ)) != 0u)
 470:.\Generated_Source\PSoC4/ADC.c ****         {
 471:.\Generated_Source\PSoC4/ADC.c ****             do
 472:.\Generated_Source\PSoC4/ADC.c ****             {
 473:.\Generated_Source\PSoC4/ADC.c ****                 status |= ADC_SAR_INTR_REG & ADC_INJ_EOC_MASK;
 474:.\Generated_Source\PSoC4/ADC.c ****             }while(((status & ADC_INJ_EOC_MASK) == 0u) &&
 475:.\Generated_Source\PSoC4/ADC.c ****                    ((retMode & ADC_WAIT_FOR_RESULT_INJ) != 0u));
 476:.\Generated_Source\PSoC4/ADC.c **** 
 477:.\Generated_Source\PSoC4/ADC.c ****             if((status & ADC_INJ_EOC_MASK) != 0u)
 478:.\Generated_Source\PSoC4/ADC.c ****             {
 479:.\Generated_Source\PSoC4/ADC.c ****                 /* Clear Injection EOS bit */
 480:.\Generated_Source\PSoC4/ADC.c ****                 ADC_SAR_INTR_REG = ADC_INJ_EOC_MASK;
 481:.\Generated_Source\PSoC4/ADC.c ****             }
 482:.\Generated_Source\PSoC4/ADC.c ****         }
 483:.\Generated_Source\PSoC4/ADC.c ****     #endif /* ADC_INJ_CHANNEL_ENABLED */
 484:.\Generated_Source\PSoC4/ADC.c **** 
 485:.\Generated_Source\PSoC4/ADC.c ****     return (status);
 486:.\Generated_Source\PSoC4/ADC.c **** }
 469              		.loc 1 486 0
 470              		@ sp needed
 471 0022 7047     		bx	lr
ARM GAS  C:\Users\g\AppData\Local\Temp\ccZUjAgS.s 			page 18


 472              	.L35:
 473              		.align	2
 474              	.L34:
 475 0024 10021A40 		.word	1075446288
 476              		.cfi_endproc
 477              	.LFE6:
 478              		.size	ADC_IsEndConversion, .-ADC_IsEndConversion
 479              		.section	.text.ADC_GetResult16,"ax",%progbits
 480              		.align	2
 481              		.global	ADC_GetResult16
 482              		.code	16
 483              		.thumb_func
 484              		.type	ADC_GetResult16, %function
 485              	ADC_GetResult16:
 486              	.LFB7:
 487:.\Generated_Source\PSoC4/ADC.c **** 
 488:.\Generated_Source\PSoC4/ADC.c **** 
 489:.\Generated_Source\PSoC4/ADC.c **** /*******************************************************************************
 490:.\Generated_Source\PSoC4/ADC.c **** * Function Name: ADC_GetResult16
 491:.\Generated_Source\PSoC4/ADC.c **** ********************************************************************************
 492:.\Generated_Source\PSoC4/ADC.c **** *
 493:.\Generated_Source\PSoC4/ADC.c **** * Summary:
 494:.\Generated_Source\PSoC4/ADC.c **** *  Gets the data available in the SAR DATA register.
 495:.\Generated_Source\PSoC4/ADC.c **** *
 496:.\Generated_Source\PSoC4/ADC.c **** * Parameters:
 497:.\Generated_Source\PSoC4/ADC.c **** *  chan: The ADC channel in which to return the result. The first channel
 498:.\Generated_Source\PSoC4/ADC.c **** *  is 0 and the injection channel if enabled is the number of valid channels.
 499:.\Generated_Source\PSoC4/ADC.c **** *
 500:.\Generated_Source\PSoC4/ADC.c **** * Return:
 501:.\Generated_Source\PSoC4/ADC.c **** *  Returns converted data as a signed 16-bit integer
 502:.\Generated_Source\PSoC4/ADC.c **** *
 503:.\Generated_Source\PSoC4/ADC.c **** *******************************************************************************/
 504:.\Generated_Source\PSoC4/ADC.c **** int16 ADC_GetResult16(uint32 chan)
 505:.\Generated_Source\PSoC4/ADC.c **** {
 487              		.loc 1 505 0
 488              		.cfi_startproc
 489              	.LVL29:
 490 0000 10B5     		push	{r4, lr}
 491              		.cfi_def_cfa_offset 8
 492              		.cfi_offset 4, -8
 493              		.cfi_offset 14, -4
 494 0002 041E     		sub	r4, r0, #0
 506:.\Generated_Source\PSoC4/ADC.c ****     uint32 result;
 507:.\Generated_Source\PSoC4/ADC.c **** 
 508:.\Generated_Source\PSoC4/ADC.c ****     /* Halt CPU in debug mode if channel is out of valid range */
 509:.\Generated_Source\PSoC4/ADC.c ****     CYASSERT(chan < ADC_TOTAL_CHANNELS_NUM);
 495              		.loc 1 509 0
 496 0004 012C     		cmp	r4, #1
 497 0006 02D9     		bls	.L37
 498              		.loc 1 509 0 is_stmt 0 discriminator 1
 499 0008 0020     		mov	r0, #0
 500              	.LVL30:
 501 000a FFF7FEFF 		bl	CyHalt
 502              	.LVL31:
 503              	.L37:
 510:.\Generated_Source\PSoC4/ADC.c **** 
 511:.\Generated_Source\PSoC4/ADC.c ****     if(chan < ADC_SEQUENCED_CHANNELS_NUM)
ARM GAS  C:\Users\g\AppData\Local\Temp\ccZUjAgS.s 			page 19


 504              		.loc 1 511 0 is_stmt 1
 505 000e 012C     		cmp	r4, #1
 506 0010 07D8     		bhi	.L39
 512:.\Generated_Source\PSoC4/ADC.c ****     {
 513:.\Generated_Source\PSoC4/ADC.c ****         result = CY_GET_REG32((reg32 *)(ADC_SAR_CHAN_RESULT_IND + (uint32)(chan << 2u))) &
 507              		.loc 1 513 0
 508 0012 A400     		lsl	r4, r4, #2
 509              	.LVL32:
 510 0014 044B     		ldr	r3, .L40
 511 0016 9C46     		mov	ip, r3
 512 0018 6444     		add	r4, r4, ip
 513 001a 2068     		ldr	r0, [r4]
 514 001c 0004     		lsl	r0, r0, #16
 515 001e 000C     		lsr	r0, r0, #16
 516              	.LVL33:
 517 0020 00E0     		b	.L38
 518              	.LVL34:
 519              	.L39:
 514:.\Generated_Source\PSoC4/ADC.c ****                 ADC_RESULT_MASK;
 515:.\Generated_Source\PSoC4/ADC.c ****     }
 516:.\Generated_Source\PSoC4/ADC.c ****     else
 517:.\Generated_Source\PSoC4/ADC.c ****     {
 518:.\Generated_Source\PSoC4/ADC.c ****         #if(ADC_INJ_CHANNEL_ENABLED)
 519:.\Generated_Source\PSoC4/ADC.c ****             result = ADC_SAR_INJ_RESULT_REG & ADC_RESULT_MASK;
 520:.\Generated_Source\PSoC4/ADC.c ****         #else
 521:.\Generated_Source\PSoC4/ADC.c ****             result = 0u;
 520              		.loc 1 521 0
 521 0022 0020     		mov	r0, #0
 522              	.LVL35:
 523              	.L38:
 522:.\Generated_Source\PSoC4/ADC.c ****         #endif /* ADC_INJ_CHANNEL_ENABLED */
 523:.\Generated_Source\PSoC4/ADC.c ****     }
 524:.\Generated_Source\PSoC4/ADC.c **** 
 525:.\Generated_Source\PSoC4/ADC.c ****     return ( (int16)result );
 524              		.loc 1 525 0
 525 0024 00B2     		sxth	r0, r0
 526              	.LVL36:
 526:.\Generated_Source\PSoC4/ADC.c **** }
 527              		.loc 1 526 0
 528              		@ sp needed
 529 0026 10BD     		pop	{r4, pc}
 530              	.L41:
 531              		.align	2
 532              	.L40:
 533 0028 80011A40 		.word	1075446144
 534              		.cfi_endproc
 535              	.LFE7:
 536              		.size	ADC_GetResult16, .-ADC_GetResult16
 537              		.section	.text.ADC_SetChanMask,"ax",%progbits
 538              		.align	2
 539              		.global	ADC_SetChanMask
 540              		.code	16
 541              		.thumb_func
 542              		.type	ADC_SetChanMask, %function
 543              	ADC_SetChanMask:
 544              	.LFB8:
 527:.\Generated_Source\PSoC4/ADC.c **** 
ARM GAS  C:\Users\g\AppData\Local\Temp\ccZUjAgS.s 			page 20


 528:.\Generated_Source\PSoC4/ADC.c **** 
 529:.\Generated_Source\PSoC4/ADC.c **** /*******************************************************************************
 530:.\Generated_Source\PSoC4/ADC.c **** * Function Name: ADC_SetChanMask
 531:.\Generated_Source\PSoC4/ADC.c **** ********************************************************************************
 532:.\Generated_Source\PSoC4/ADC.c **** *
 533:.\Generated_Source\PSoC4/ADC.c **** * Summary:
 534:.\Generated_Source\PSoC4/ADC.c **** *  Sets the channel enable mask.
 535:.\Generated_Source\PSoC4/ADC.c **** *
 536:.\Generated_Source\PSoC4/ADC.c **** * Parameters:
 537:.\Generated_Source\PSoC4/ADC.c **** *  mask: Sets which channels that will be
 538:.\Generated_Source\PSoC4/ADC.c **** *  scanned. Setting bits for channels that do not exist will have no
 539:.\Generated_Source\PSoC4/ADC.c **** *  effect. For example, if only 6 channels were enabled, setting a
 540:.\Generated_Source\PSoC4/ADC.c **** *  mask of 0x0103 would only enable the last two channels (0 and 1).
 541:.\Generated_Source\PSoC4/ADC.c **** *  This API will not enable the injection channel.
 542:.\Generated_Source\PSoC4/ADC.c **** *  Examples: If the component is setup to sequence through 8
 543:.\Generated_Source\PSoC4/ADC.c **** *  channels, a mask of 0x000F would enable channels 0, 1, 2, and 3.
 544:.\Generated_Source\PSoC4/ADC.c **** *
 545:.\Generated_Source\PSoC4/ADC.c **** * Return:
 546:.\Generated_Source\PSoC4/ADC.c **** *  None.
 547:.\Generated_Source\PSoC4/ADC.c **** *
 548:.\Generated_Source\PSoC4/ADC.c **** *******************************************************************************/
 549:.\Generated_Source\PSoC4/ADC.c **** void ADC_SetChanMask(uint32 mask)
 550:.\Generated_Source\PSoC4/ADC.c **** {
 545              		.loc 1 550 0
 546              		.cfi_startproc
 547              	.LVL37:
 551:.\Generated_Source\PSoC4/ADC.c ****     ADC_SAR_CHAN_EN_REG = mask & ADC_MAX_CHANNELS_EN_MASK;
 548              		.loc 1 551 0
 549 0000 0323     		mov	r3, #3
 550 0002 1840     		and	r0, r3
 551              	.LVL38:
 552 0004 014B     		ldr	r3, .L43
 553 0006 1860     		str	r0, [r3]
 552:.\Generated_Source\PSoC4/ADC.c **** }
 554              		.loc 1 552 0
 555              		@ sp needed
 556 0008 7047     		bx	lr
 557              	.L44:
 558 000a C046     		.align	2
 559              	.L43:
 560 000c 20001A40 		.word	1075445792
 561              		.cfi_endproc
 562              	.LFE8:
 563              		.size	ADC_SetChanMask, .-ADC_SetChanMask
 564              		.section	.text.ADC_SetLowLimit,"ax",%progbits
 565              		.align	2
 566              		.global	ADC_SetLowLimit
 567              		.code	16
 568              		.thumb_func
 569              		.type	ADC_SetLowLimit, %function
 570              	ADC_SetLowLimit:
 571              	.LFB9:
 553:.\Generated_Source\PSoC4/ADC.c **** 
 554:.\Generated_Source\PSoC4/ADC.c **** #if(ADC_INJ_CHANNEL_ENABLED)
 555:.\Generated_Source\PSoC4/ADC.c **** 
 556:.\Generated_Source\PSoC4/ADC.c **** 
 557:.\Generated_Source\PSoC4/ADC.c ****     /*******************************************************************************
ARM GAS  C:\Users\g\AppData\Local\Temp\ccZUjAgS.s 			page 21


 558:.\Generated_Source\PSoC4/ADC.c ****     * Function Name: ADC_EnableInjection
 559:.\Generated_Source\PSoC4/ADC.c ****     ********************************************************************************
 560:.\Generated_Source\PSoC4/ADC.c ****     *
 561:.\Generated_Source\PSoC4/ADC.c ****     * Summary:
 562:.\Generated_Source\PSoC4/ADC.c ****     *  Enables the injection channel for the next scan only.
 563:.\Generated_Source\PSoC4/ADC.c ****     *
 564:.\Generated_Source\PSoC4/ADC.c ****     * Parameters:
 565:.\Generated_Source\PSoC4/ADC.c ****     *  None.
 566:.\Generated_Source\PSoC4/ADC.c ****     *
 567:.\Generated_Source\PSoC4/ADC.c ****     * Return:
 568:.\Generated_Source\PSoC4/ADC.c ****     *  None.
 569:.\Generated_Source\PSoC4/ADC.c ****     *
 570:.\Generated_Source\PSoC4/ADC.c ****     *******************************************************************************/
 571:.\Generated_Source\PSoC4/ADC.c ****     void ADC_EnableInjection(void)
 572:.\Generated_Source\PSoC4/ADC.c ****     {
 573:.\Generated_Source\PSoC4/ADC.c ****         ADC_SAR_INJ_CHAN_CONFIG_REG |= ADC_INJ_CHAN_EN;
 574:.\Generated_Source\PSoC4/ADC.c ****     }
 575:.\Generated_Source\PSoC4/ADC.c **** 
 576:.\Generated_Source\PSoC4/ADC.c **** #endif /* ADC_INJ_CHANNEL_ENABLED */
 577:.\Generated_Source\PSoC4/ADC.c **** 
 578:.\Generated_Source\PSoC4/ADC.c **** 
 579:.\Generated_Source\PSoC4/ADC.c **** /*******************************************************************************
 580:.\Generated_Source\PSoC4/ADC.c **** * Function Name: ADC_SetLowLimit
 581:.\Generated_Source\PSoC4/ADC.c **** ********************************************************************************
 582:.\Generated_Source\PSoC4/ADC.c **** *
 583:.\Generated_Source\PSoC4/ADC.c **** * Summary:
 584:.\Generated_Source\PSoC4/ADC.c **** *  Sets the low limit parameter for a limit condition.
 585:.\Generated_Source\PSoC4/ADC.c **** *
 586:.\Generated_Source\PSoC4/ADC.c **** * Parameters:
 587:.\Generated_Source\PSoC4/ADC.c **** *  lowLimit: The low limit for a limit condition.
 588:.\Generated_Source\PSoC4/ADC.c **** *
 589:.\Generated_Source\PSoC4/ADC.c **** * Return:
 590:.\Generated_Source\PSoC4/ADC.c **** *  None.
 591:.\Generated_Source\PSoC4/ADC.c **** *
 592:.\Generated_Source\PSoC4/ADC.c **** *******************************************************************************/
 593:.\Generated_Source\PSoC4/ADC.c **** void ADC_SetLowLimit(uint32 lowLimit)
 594:.\Generated_Source\PSoC4/ADC.c **** {
 572              		.loc 1 594 0
 573              		.cfi_startproc
 574              	.LVL39:
 595:.\Generated_Source\PSoC4/ADC.c ****     ADC_SAR_RANGE_THRES_REG &= (uint32)(~ADC_RANGE_LOW_MASK);
 575              		.loc 1 595 0
 576 0000 054A     		ldr	r2, .L46
 577 0002 1368     		ldr	r3, [r2]
 578 0004 1B0C     		lsr	r3, r3, #16
 579 0006 1B04     		lsl	r3, r3, #16
 580 0008 1360     		str	r3, [r2]
 596:.\Generated_Source\PSoC4/ADC.c ****     ADC_SAR_RANGE_THRES_REG |= lowLimit & ADC_RANGE_LOW_MASK;
 581              		.loc 1 596 0
 582 000a 1368     		ldr	r3, [r2]
 583 000c 0004     		lsl	r0, r0, #16
 584              	.LVL40:
 585 000e 000C     		lsr	r0, r0, #16
 586 0010 1843     		orr	r0, r3
 587 0012 1060     		str	r0, [r2]
 597:.\Generated_Source\PSoC4/ADC.c **** }
 588              		.loc 1 597 0
ARM GAS  C:\Users\g\AppData\Local\Temp\ccZUjAgS.s 			page 22


 589              		@ sp needed
 590 0014 7047     		bx	lr
 591              	.L47:
 592 0016 C046     		.align	2
 593              	.L46:
 594 0018 18001A40 		.word	1075445784
 595              		.cfi_endproc
 596              	.LFE9:
 597              		.size	ADC_SetLowLimit, .-ADC_SetLowLimit
 598              		.section	.text.ADC_SetHighLimit,"ax",%progbits
 599              		.align	2
 600              		.global	ADC_SetHighLimit
 601              		.code	16
 602              		.thumb_func
 603              		.type	ADC_SetHighLimit, %function
 604              	ADC_SetHighLimit:
 605              	.LFB10:
 598:.\Generated_Source\PSoC4/ADC.c **** 
 599:.\Generated_Source\PSoC4/ADC.c **** 
 600:.\Generated_Source\PSoC4/ADC.c **** /*******************************************************************************
 601:.\Generated_Source\PSoC4/ADC.c **** * Function Name: ADC_SetHighLimit
 602:.\Generated_Source\PSoC4/ADC.c **** ********************************************************************************
 603:.\Generated_Source\PSoC4/ADC.c **** *
 604:.\Generated_Source\PSoC4/ADC.c **** * Summary:
 605:.\Generated_Source\PSoC4/ADC.c **** *  Sets the low limit parameter for a limit condition.
 606:.\Generated_Source\PSoC4/ADC.c **** *
 607:.\Generated_Source\PSoC4/ADC.c **** * Parameters:
 608:.\Generated_Source\PSoC4/ADC.c **** *  highLimit: The high limit for a limit condition.
 609:.\Generated_Source\PSoC4/ADC.c **** *
 610:.\Generated_Source\PSoC4/ADC.c **** * Return:
 611:.\Generated_Source\PSoC4/ADC.c **** *  None.
 612:.\Generated_Source\PSoC4/ADC.c **** *
 613:.\Generated_Source\PSoC4/ADC.c **** *******************************************************************************/
 614:.\Generated_Source\PSoC4/ADC.c **** void ADC_SetHighLimit(uint32 highLimit)
 615:.\Generated_Source\PSoC4/ADC.c **** {
 606              		.loc 1 615 0
 607              		.cfi_startproc
 608              	.LVL41:
 616:.\Generated_Source\PSoC4/ADC.c ****     ADC_SAR_RANGE_THRES_REG &= (uint32)(~ADC_RANGE_HIGH_MASK);
 609              		.loc 1 616 0
 610 0000 044A     		ldr	r2, .L49
 611 0002 1368     		ldr	r3, [r2]
 612 0004 1B04     		lsl	r3, r3, #16
 613 0006 1B0C     		lsr	r3, r3, #16
 614 0008 1360     		str	r3, [r2]
 617:.\Generated_Source\PSoC4/ADC.c ****     ADC_SAR_RANGE_THRES_REG |= (uint32)(highLimit << ADC_RANGE_HIGH_OFFSET);
 615              		.loc 1 617 0
 616 000a 1368     		ldr	r3, [r2]
 617 000c 0004     		lsl	r0, r0, #16
 618              	.LVL42:
 619 000e 1843     		orr	r0, r3
 620 0010 1060     		str	r0, [r2]
 618:.\Generated_Source\PSoC4/ADC.c **** }
 621              		.loc 1 618 0
 622              		@ sp needed
 623 0012 7047     		bx	lr
 624              	.L50:
ARM GAS  C:\Users\g\AppData\Local\Temp\ccZUjAgS.s 			page 23


 625              		.align	2
 626              	.L49:
 627 0014 18001A40 		.word	1075445784
 628              		.cfi_endproc
 629              	.LFE10:
 630              		.size	ADC_SetHighLimit, .-ADC_SetHighLimit
 631              		.section	.text.ADC_SetLimitMask,"ax",%progbits
 632              		.align	2
 633              		.global	ADC_SetLimitMask
 634              		.code	16
 635              		.thumb_func
 636              		.type	ADC_SetLimitMask, %function
 637              	ADC_SetLimitMask:
 638              	.LFB11:
 619:.\Generated_Source\PSoC4/ADC.c **** 
 620:.\Generated_Source\PSoC4/ADC.c **** 
 621:.\Generated_Source\PSoC4/ADC.c **** /*******************************************************************************
 622:.\Generated_Source\PSoC4/ADC.c **** * Function Name: ADC_SetLimitMask
 623:.\Generated_Source\PSoC4/ADC.c **** ********************************************************************************
 624:.\Generated_Source\PSoC4/ADC.c **** *
 625:.\Generated_Source\PSoC4/ADC.c **** * Summary:
 626:.\Generated_Source\PSoC4/ADC.c **** *  Sets the channel limit condition mask.
 627:.\Generated_Source\PSoC4/ADC.c **** *
 628:.\Generated_Source\PSoC4/ADC.c **** * Parameters:
 629:.\Generated_Source\PSoC4/ADC.c **** *  mask: Sets which channels that may cause a
 630:.\Generated_Source\PSoC4/ADC.c **** *  limit condition interrupt. Setting bits for channels that do not exist
 631:.\Generated_Source\PSoC4/ADC.c **** *  will have no effect. For example, if only 6 channels were enabled,
 632:.\Generated_Source\PSoC4/ADC.c **** *  setting a mask of 0x0103 would only enable the last two channels (0 and 1).
 633:.\Generated_Source\PSoC4/ADC.c **** *
 634:.\Generated_Source\PSoC4/ADC.c **** * Return:
 635:.\Generated_Source\PSoC4/ADC.c **** *  None.
 636:.\Generated_Source\PSoC4/ADC.c **** *
 637:.\Generated_Source\PSoC4/ADC.c **** *******************************************************************************/
 638:.\Generated_Source\PSoC4/ADC.c **** void ADC_SetLimitMask(uint32 mask)
 639:.\Generated_Source\PSoC4/ADC.c **** {
 639              		.loc 1 639 0
 640              		.cfi_startproc
 641              	.LVL43:
 640:.\Generated_Source\PSoC4/ADC.c ****     ADC_SAR_RANGE_INTR_MASK_REG = mask & ADC_MAX_CHANNELS_EN_MASK;
 642              		.loc 1 640 0
 643 0000 0323     		mov	r3, #3
 644 0002 1840     		and	r0, r3
 645              	.LVL44:
 646 0004 014B     		ldr	r3, .L52
 647 0006 1860     		str	r0, [r3]
 641:.\Generated_Source\PSoC4/ADC.c **** }
 648              		.loc 1 641 0
 649              		@ sp needed
 650 0008 7047     		bx	lr
 651              	.L53:
 652 000a C046     		.align	2
 653              	.L52:
 654 000c 38021A40 		.word	1075446328
 655              		.cfi_endproc
 656              	.LFE11:
 657              		.size	ADC_SetLimitMask, .-ADC_SetLimitMask
 658              		.section	.text.ADC_SetSatMask,"ax",%progbits
ARM GAS  C:\Users\g\AppData\Local\Temp\ccZUjAgS.s 			page 24


 659              		.align	2
 660              		.global	ADC_SetSatMask
 661              		.code	16
 662              		.thumb_func
 663              		.type	ADC_SetSatMask, %function
 664              	ADC_SetSatMask:
 665              	.LFB12:
 642:.\Generated_Source\PSoC4/ADC.c **** 
 643:.\Generated_Source\PSoC4/ADC.c **** 
 644:.\Generated_Source\PSoC4/ADC.c **** /*******************************************************************************
 645:.\Generated_Source\PSoC4/ADC.c **** * Function Name: ADC_SetSatMask
 646:.\Generated_Source\PSoC4/ADC.c **** ********************************************************************************
 647:.\Generated_Source\PSoC4/ADC.c **** *
 648:.\Generated_Source\PSoC4/ADC.c **** * Summary:
 649:.\Generated_Source\PSoC4/ADC.c **** *  Sets the channel saturation event mask.
 650:.\Generated_Source\PSoC4/ADC.c **** *
 651:.\Generated_Source\PSoC4/ADC.c **** * Parameters:
 652:.\Generated_Source\PSoC4/ADC.c **** *  mask: Sets which channels that may cause a
 653:.\Generated_Source\PSoC4/ADC.c **** *  saturation event interrupt. Setting bits for channels that do not exist
 654:.\Generated_Source\PSoC4/ADC.c **** *  will have no effect. For example, if only 8 channels were enabled,
 655:.\Generated_Source\PSoC4/ADC.c **** *  setting a mask of 0x01C0 would only enable two channels (6 and 7).
 656:.\Generated_Source\PSoC4/ADC.c **** *
 657:.\Generated_Source\PSoC4/ADC.c **** * Return:
 658:.\Generated_Source\PSoC4/ADC.c **** *  None.
 659:.\Generated_Source\PSoC4/ADC.c **** *
 660:.\Generated_Source\PSoC4/ADC.c **** *******************************************************************************/
 661:.\Generated_Source\PSoC4/ADC.c **** void ADC_SetSatMask(uint32 mask)
 662:.\Generated_Source\PSoC4/ADC.c **** {
 666              		.loc 1 662 0
 667              		.cfi_startproc
 668              	.LVL45:
 663:.\Generated_Source\PSoC4/ADC.c ****     ADC_SAR_SATURATE_INTR_MASK_REG = mask & ADC_MAX_CHANNELS_EN_MASK;
 669              		.loc 1 663 0
 670 0000 0323     		mov	r3, #3
 671 0002 1840     		and	r0, r3
 672              	.LVL46:
 673 0004 014B     		ldr	r3, .L55
 674 0006 1860     		str	r0, [r3]
 664:.\Generated_Source\PSoC4/ADC.c **** }
 675              		.loc 1 664 0
 676              		@ sp needed
 677 0008 7047     		bx	lr
 678              	.L56:
 679 000a C046     		.align	2
 680              	.L55:
 681 000c 28021A40 		.word	1075446312
 682              		.cfi_endproc
 683              	.LFE12:
 684              		.size	ADC_SetSatMask, .-ADC_SetSatMask
 685              		.section	.text.ADC_SetOffset,"ax",%progbits
 686              		.align	2
 687              		.global	ADC_SetOffset
 688              		.code	16
 689              		.thumb_func
 690              		.type	ADC_SetOffset, %function
 691              	ADC_SetOffset:
 692              	.LFB13:
ARM GAS  C:\Users\g\AppData\Local\Temp\ccZUjAgS.s 			page 25


 665:.\Generated_Source\PSoC4/ADC.c **** 
 666:.\Generated_Source\PSoC4/ADC.c **** 
 667:.\Generated_Source\PSoC4/ADC.c **** /*******************************************************************************
 668:.\Generated_Source\PSoC4/ADC.c **** * Function Name: ADC_SetOffset
 669:.\Generated_Source\PSoC4/ADC.c **** ********************************************************************************
 670:.\Generated_Source\PSoC4/ADC.c **** *
 671:.\Generated_Source\PSoC4/ADC.c **** * Summary:
 672:.\Generated_Source\PSoC4/ADC.c **** *   Description: Sets the ADC offset which is used by the functions
 673:.\Generated_Source\PSoC4/ADC.c **** *   ADC_CountsTo_uVolts, ADC_CountsTo_mVolts and ADC_CountsTo_Volts
 674:.\Generated_Source\PSoC4/ADC.c **** *   to substract the offset from the given reading
 675:.\Generated_Source\PSoC4/ADC.c **** *   before calculating the voltage conversion.
 676:.\Generated_Source\PSoC4/ADC.c **** *
 677:.\Generated_Source\PSoC4/ADC.c **** * Parameters:
 678:.\Generated_Source\PSoC4/ADC.c **** *  chan: ADC channel number.
 679:.\Generated_Source\PSoC4/ADC.c **** *  offset: This value is a measured value when the
 680:.\Generated_Source\PSoC4/ADC.c **** *          inputs are shorted or connected to the same input voltage.
 681:.\Generated_Source\PSoC4/ADC.c **** *
 682:.\Generated_Source\PSoC4/ADC.c **** * Return:
 683:.\Generated_Source\PSoC4/ADC.c **** *  None.
 684:.\Generated_Source\PSoC4/ADC.c **** *
 685:.\Generated_Source\PSoC4/ADC.c **** * Global variables:
 686:.\Generated_Source\PSoC4/ADC.c **** *  ADC_Offset:  Modified to set the user provided offset.
 687:.\Generated_Source\PSoC4/ADC.c **** *
 688:.\Generated_Source\PSoC4/ADC.c **** *******************************************************************************/
 689:.\Generated_Source\PSoC4/ADC.c **** void ADC_SetOffset(uint32 chan, int16 offset)
 690:.\Generated_Source\PSoC4/ADC.c **** {
 693              		.loc 1 690 0
 694              		.cfi_startproc
 695              	.LVL47:
 696 0000 38B5     		push	{r3, r4, r5, lr}
 697              		.cfi_def_cfa_offset 16
 698              		.cfi_offset 3, -16
 699              		.cfi_offset 4, -12
 700              		.cfi_offset 5, -8
 701              		.cfi_offset 14, -4
 702 0002 041C     		mov	r4, r0
 703 0004 0D1C     		mov	r5, r1
 691:.\Generated_Source\PSoC4/ADC.c ****     /* Halt CPU in debug mode if channel is out of valid range */
 692:.\Generated_Source\PSoC4/ADC.c ****     CYASSERT(chan < ADC_TOTAL_CHANNELS_NUM);
 704              		.loc 1 692 0
 705 0006 0128     		cmp	r0, #1
 706 0008 02D9     		bls	.L58
 707              		.loc 1 692 0 is_stmt 0 discriminator 1
 708 000a 0020     		mov	r0, #0
 709              	.LVL48:
 710 000c FFF7FEFF 		bl	CyHalt
 711              	.LVL49:
 712              	.L58:
 693:.\Generated_Source\PSoC4/ADC.c **** 
 694:.\Generated_Source\PSoC4/ADC.c ****     ADC_offset[chan] = offset;
 713              		.loc 1 694 0 is_stmt 1
 714 0010 6400     		lsl	r4, r4, #1
 715              	.LVL50:
 716 0012 014B     		ldr	r3, .L59
 717 0014 E552     		strh	r5, [r4, r3]
 695:.\Generated_Source\PSoC4/ADC.c **** }
 718              		.loc 1 695 0
ARM GAS  C:\Users\g\AppData\Local\Temp\ccZUjAgS.s 			page 26


 719              		@ sp needed
 720 0016 38BD     		pop	{r3, r4, r5, pc}
 721              	.L60:
 722              		.align	2
 723              	.L59:
 724 0018 00000000 		.word	ADC_offset
 725              		.cfi_endproc
 726              	.LFE13:
 727              		.size	ADC_SetOffset, .-ADC_SetOffset
 728              		.section	.text.ADC_SetGain,"ax",%progbits
 729              		.align	2
 730              		.global	ADC_SetGain
 731              		.code	16
 732              		.thumb_func
 733              		.type	ADC_SetGain, %function
 734              	ADC_SetGain:
 735              	.LFB14:
 696:.\Generated_Source\PSoC4/ADC.c **** 
 697:.\Generated_Source\PSoC4/ADC.c **** 
 698:.\Generated_Source\PSoC4/ADC.c **** /*******************************************************************************
 699:.\Generated_Source\PSoC4/ADC.c **** * Function Name: ADC_SetGain
 700:.\Generated_Source\PSoC4/ADC.c **** ********************************************************************************
 701:.\Generated_Source\PSoC4/ADC.c **** *
 702:.\Generated_Source\PSoC4/ADC.c **** * Summary:
 703:.\Generated_Source\PSoC4/ADC.c **** *  Description: Sets the ADC gain in counts per 10 volt for the voltage
 704:.\Generated_Source\PSoC4/ADC.c **** *  conversion functions below. This value is set by default by the
 705:.\Generated_Source\PSoC4/ADC.c **** *  reference and input range settings. It should only be used to further
 706:.\Generated_Source\PSoC4/ADC.c **** *  calibrate the ADC with a known input or if an external reference is
 707:.\Generated_Source\PSoC4/ADC.c **** *  used. Affects the ADC_CountsTo_uVolts, ADC_CountsTo_mVolts
 708:.\Generated_Source\PSoC4/ADC.c **** *  and ADC_CountsTo_Volts functions by supplying the correct
 709:.\Generated_Source\PSoC4/ADC.c **** *  conversion between ADC counts and voltage.
 710:.\Generated_Source\PSoC4/ADC.c **** *
 711:.\Generated_Source\PSoC4/ADC.c **** * Parameters:
 712:.\Generated_Source\PSoC4/ADC.c **** *  chan: ADC channel number.
 713:.\Generated_Source\PSoC4/ADC.c **** *  adcGain: ADC gain in counts per 10 volts.
 714:.\Generated_Source\PSoC4/ADC.c **** *
 715:.\Generated_Source\PSoC4/ADC.c **** * Return:
 716:.\Generated_Source\PSoC4/ADC.c **** *  None.
 717:.\Generated_Source\PSoC4/ADC.c **** *
 718:.\Generated_Source\PSoC4/ADC.c **** * Global variables:
 719:.\Generated_Source\PSoC4/ADC.c **** *  ADC_CountsPer10Volt:  modified to set the ADC gain in counts
 720:.\Generated_Source\PSoC4/ADC.c **** *   per 10 volt.
 721:.\Generated_Source\PSoC4/ADC.c **** *
 722:.\Generated_Source\PSoC4/ADC.c **** *******************************************************************************/
 723:.\Generated_Source\PSoC4/ADC.c **** void ADC_SetGain(uint32 chan, int32 adcGain)
 724:.\Generated_Source\PSoC4/ADC.c **** {
 736              		.loc 1 724 0
 737              		.cfi_startproc
 738              	.LVL51:
 739 0000 38B5     		push	{r3, r4, r5, lr}
 740              		.cfi_def_cfa_offset 16
 741              		.cfi_offset 3, -16
 742              		.cfi_offset 4, -12
 743              		.cfi_offset 5, -8
 744              		.cfi_offset 14, -4
 745 0002 041C     		mov	r4, r0
 746 0004 0D1C     		mov	r5, r1
ARM GAS  C:\Users\g\AppData\Local\Temp\ccZUjAgS.s 			page 27


 725:.\Generated_Source\PSoC4/ADC.c ****     /* Halt CPU in debug mode if channel is out of valid range */
 726:.\Generated_Source\PSoC4/ADC.c ****     CYASSERT(chan < ADC_TOTAL_CHANNELS_NUM);
 747              		.loc 1 726 0
 748 0006 0128     		cmp	r0, #1
 749 0008 02D9     		bls	.L62
 750              		.loc 1 726 0 is_stmt 0 discriminator 1
 751 000a 0020     		mov	r0, #0
 752              	.LVL52:
 753 000c FFF7FEFF 		bl	CyHalt
 754              	.LVL53:
 755              	.L62:
 727:.\Generated_Source\PSoC4/ADC.c **** 
 728:.\Generated_Source\PSoC4/ADC.c ****     ADC_countsPer10Volt[chan] = adcGain;
 756              		.loc 1 728 0 is_stmt 1
 757 0010 A400     		lsl	r4, r4, #2
 758              	.LVL54:
 759 0012 014B     		ldr	r3, .L63
 760 0014 E550     		str	r5, [r4, r3]
 729:.\Generated_Source\PSoC4/ADC.c **** }
 761              		.loc 1 729 0
 762              		@ sp needed
 763              	.LVL55:
 764 0016 38BD     		pop	{r3, r4, r5, pc}
 765              	.L64:
 766              		.align	2
 767              	.L63:
 768 0018 00000000 		.word	ADC_countsPer10Volt
 769              		.cfi_endproc
 770              	.LFE14:
 771              		.size	ADC_SetGain, .-ADC_SetGain
 772              		.global	__aeabi_idiv
 773              		.section	.text.ADC_CountsTo_mVolts,"ax",%progbits
 774              		.align	2
 775              		.global	ADC_CountsTo_mVolts
 776              		.code	16
 777              		.thumb_func
 778              		.type	ADC_CountsTo_mVolts, %function
 779              	ADC_CountsTo_mVolts:
 780              	.LFB15:
 730:.\Generated_Source\PSoC4/ADC.c **** 
 731:.\Generated_Source\PSoC4/ADC.c **** 
 732:.\Generated_Source\PSoC4/ADC.c **** #if(ADC_DEFAULT_JUSTIFICATION_SEL == ADC__RIGHT)
 733:.\Generated_Source\PSoC4/ADC.c **** 
 734:.\Generated_Source\PSoC4/ADC.c **** 
 735:.\Generated_Source\PSoC4/ADC.c ****     /*******************************************************************************
 736:.\Generated_Source\PSoC4/ADC.c ****     * Function Name: ADC_CountsTo_mVolts
 737:.\Generated_Source\PSoC4/ADC.c ****     ********************************************************************************
 738:.\Generated_Source\PSoC4/ADC.c ****     *
 739:.\Generated_Source\PSoC4/ADC.c ****     * Summary:
 740:.\Generated_Source\PSoC4/ADC.c ****     *  This function converts ADC counts to mVolts
 741:.\Generated_Source\PSoC4/ADC.c ****     *  This function is not available when left data format justification selected.
 742:.\Generated_Source\PSoC4/ADC.c ****     *
 743:.\Generated_Source\PSoC4/ADC.c ****     * Parameters:
 744:.\Generated_Source\PSoC4/ADC.c ****     *  chan: The ADC channel number.
 745:.\Generated_Source\PSoC4/ADC.c ****     *  adcCounts: Result from the ADC conversion
 746:.\Generated_Source\PSoC4/ADC.c ****     *
 747:.\Generated_Source\PSoC4/ADC.c ****     * Return:
ARM GAS  C:\Users\g\AppData\Local\Temp\ccZUjAgS.s 			page 28


 748:.\Generated_Source\PSoC4/ADC.c ****     *  Results in mVolts
 749:.\Generated_Source\PSoC4/ADC.c ****     *
 750:.\Generated_Source\PSoC4/ADC.c ****     * Global variables:
 751:.\Generated_Source\PSoC4/ADC.c ****     *  ADC_countsPer10Volt:  used to convert ADC counts to mVolts.
 752:.\Generated_Source\PSoC4/ADC.c ****     *  ADC_Offset:  Used as the offset while converting ADC counts
 753:.\Generated_Source\PSoC4/ADC.c ****     *   to mVolts.
 754:.\Generated_Source\PSoC4/ADC.c ****     *
 755:.\Generated_Source\PSoC4/ADC.c ****     *******************************************************************************/
 756:.\Generated_Source\PSoC4/ADC.c ****     int16 ADC_CountsTo_mVolts(uint32 chan, int16 adcCounts)
 757:.\Generated_Source\PSoC4/ADC.c ****     {
 781              		.loc 1 757 0
 782              		.cfi_startproc
 783              	.LVL56:
 784 0000 38B5     		push	{r3, r4, r5, lr}
 785              		.cfi_def_cfa_offset 16
 786              		.cfi_offset 3, -16
 787              		.cfi_offset 4, -12
 788              		.cfi_offset 5, -8
 789              		.cfi_offset 14, -4
 790 0002 041C     		mov	r4, r0
 791 0004 0D1C     		mov	r5, r1
 758:.\Generated_Source\PSoC4/ADC.c ****         int16 mVolts;
 759:.\Generated_Source\PSoC4/ADC.c **** 
 760:.\Generated_Source\PSoC4/ADC.c ****         /* Halt CPU in debug mode if channel is out of valid range */
 761:.\Generated_Source\PSoC4/ADC.c ****         CYASSERT(chan < ADC_TOTAL_CHANNELS_NUM);
 792              		.loc 1 761 0
 793 0006 0128     		cmp	r0, #1
 794 0008 02D9     		bls	.L66
 795              		.loc 1 761 0 is_stmt 0 discriminator 1
 796 000a 0020     		mov	r0, #0
 797              	.LVL57:
 798 000c FFF7FEFF 		bl	CyHalt
 799              	.LVL58:
 800              	.L66:
 762:.\Generated_Source\PSoC4/ADC.c **** 
 763:.\Generated_Source\PSoC4/ADC.c ****         /* Divide the adcCount when accumulate averaging mode selected */
 764:.\Generated_Source\PSoC4/ADC.c ****         #if(ADC_DEFAULT_AVG_MODE == ADC__ACCUMULATE)
 765:.\Generated_Source\PSoC4/ADC.c ****             if((ADC_channelsConfig[chan] & ADC_AVERAGING_EN) != 0u)
 766:.\Generated_Source\PSoC4/ADC.c ****             {
 767:.\Generated_Source\PSoC4/ADC.c ****                 adcCounts /= ADC_DEFAULT_AVG_SAMPLES_DIV;
 768:.\Generated_Source\PSoC4/ADC.c ****             }
 769:.\Generated_Source\PSoC4/ADC.c ****         #endif /* ADC_DEFAULT_AVG_MODE == ADC__ACCUMULATE */
 770:.\Generated_Source\PSoC4/ADC.c **** 
 771:.\Generated_Source\PSoC4/ADC.c ****         /* Subtract ADC offset */
 772:.\Generated_Source\PSoC4/ADC.c ****         adcCounts -= ADC_offset[chan];
 801              		.loc 1 772 0 is_stmt 1
 802 0010 6300     		lsl	r3, r4, #1
 803 0012 0F4A     		ldr	r2, .L69
 804 0014 995A     		ldrh	r1, [r3, r2]
 805 0016 691A     		sub	r1, r5, r1
 806 0018 09B2     		sxth	r1, r1
 807              	.LVL59:
 773:.\Generated_Source\PSoC4/ADC.c **** 
 774:.\Generated_Source\PSoC4/ADC.c ****         mVolts = (int16)((((int32)adcCounts * ADC_10MV_COUNTS) + ( (adcCounts > 0) ?
 808              		.loc 1 774 0
 809 001a 0E48     		ldr	r0, .L69+4
 810 001c 021C     		mov	r2, r0
ARM GAS  C:\Users\g\AppData\Local\Temp\ccZUjAgS.s 			page 29


 811 001e 4A43     		mul	r2, r1
 775:.\Generated_Source\PSoC4/ADC.c ****                  (ADC_countsPer10Volt[chan] / 2) : (-(ADC_countsPer10Volt[chan] / 2)) ))
 812              		.loc 1 775 0
 813 0020 0029     		cmp	r1, #0
 814 0022 06DD     		ble	.L67
 815              		.loc 1 775 0 is_stmt 0 discriminator 1
 816 0024 A300     		lsl	r3, r4, #2
 817 0026 0C49     		ldr	r1, .L69+8
 818              	.LVL60:
 819 0028 5B58     		ldr	r3, [r3, r1]
 820 002a D80F     		lsr	r0, r3, #31
 821 002c C018     		add	r0, r0, r3
 822 002e 4310     		asr	r3, r0, #1
 823 0030 06E0     		b	.L68
 824              	.LVL61:
 825              	.L67:
 826              		.loc 1 775 0 discriminator 2
 827 0032 A300     		lsl	r3, r4, #2
 828 0034 0849     		ldr	r1, .L69+8
 829              	.LVL62:
 830 0036 5B58     		ldr	r3, [r3, r1]
 831 0038 D80F     		lsr	r0, r3, #31
 832 003a C318     		add	r3, r0, r3
 833 003c 5B10     		asr	r3, r3, #1
 834 003e 5B42     		neg	r3, r3
 835              	.L68:
 774:.\Generated_Source\PSoC4/ADC.c ****                  (ADC_countsPer10Volt[chan] / 2) : (-(ADC_countsPer10Volt[chan] / 2)) ))
 836              		.loc 1 774 0 is_stmt 1
 837 0040 D018     		add	r0, r2, r3
 776:.\Generated_Source\PSoC4/ADC.c ****                  / ADC_countsPer10Volt[chan]);
 838              		.loc 1 776 0
 839 0042 A400     		lsl	r4, r4, #2
 840              	.LVL63:
 841 0044 044B     		ldr	r3, .L69+8
 842 0046 E158     		ldr	r1, [r4, r3]
 843 0048 FFF7FEFF 		bl	__aeabi_idiv
 844              	.LVL64:
 777:.\Generated_Source\PSoC4/ADC.c **** 
 778:.\Generated_Source\PSoC4/ADC.c ****         return( mVolts );
 845              		.loc 1 778 0
 846 004c 00B2     		sxth	r0, r0
 779:.\Generated_Source\PSoC4/ADC.c ****     }
 847              		.loc 1 779 0
 848              		@ sp needed
 849 004e 38BD     		pop	{r3, r4, r5, pc}
 850              	.L70:
 851              		.align	2
 852              	.L69:
 853 0050 00000000 		.word	ADC_offset
 854 0054 10270000 		.word	10000
 855 0058 00000000 		.word	ADC_countsPer10Volt
 856              		.cfi_endproc
 857              	.LFE15:
 858              		.size	ADC_CountsTo_mVolts, .-ADC_CountsTo_mVolts
 859              		.global	__aeabi_lmul
 860              		.global	__aeabi_ldivmod
 861              		.section	.text.ADC_CountsTo_uVolts,"ax",%progbits
ARM GAS  C:\Users\g\AppData\Local\Temp\ccZUjAgS.s 			page 30


 862              		.align	2
 863              		.global	ADC_CountsTo_uVolts
 864              		.code	16
 865              		.thumb_func
 866              		.type	ADC_CountsTo_uVolts, %function
 867              	ADC_CountsTo_uVolts:
 868              	.LFB16:
 780:.\Generated_Source\PSoC4/ADC.c **** 
 781:.\Generated_Source\PSoC4/ADC.c **** 
 782:.\Generated_Source\PSoC4/ADC.c ****     /*******************************************************************************
 783:.\Generated_Source\PSoC4/ADC.c ****     * Function Name: ADC_CountsTo_uVolts
 784:.\Generated_Source\PSoC4/ADC.c ****     ********************************************************************************
 785:.\Generated_Source\PSoC4/ADC.c ****     *
 786:.\Generated_Source\PSoC4/ADC.c ****     * Summary:
 787:.\Generated_Source\PSoC4/ADC.c ****     *  This function converts ADC counts to micro Volts
 788:.\Generated_Source\PSoC4/ADC.c ****     *  This function is not available when left data format justification selected.
 789:.\Generated_Source\PSoC4/ADC.c ****     *
 790:.\Generated_Source\PSoC4/ADC.c ****     * Parameters:
 791:.\Generated_Source\PSoC4/ADC.c ****     *  chan: The ADC channel number.
 792:.\Generated_Source\PSoC4/ADC.c ****     *  adcCounts: Result from the ADC conversion
 793:.\Generated_Source\PSoC4/ADC.c ****     *
 794:.\Generated_Source\PSoC4/ADC.c ****     * Return:
 795:.\Generated_Source\PSoC4/ADC.c ****     *  Results in uVolts
 796:.\Generated_Source\PSoC4/ADC.c ****     *
 797:.\Generated_Source\PSoC4/ADC.c ****     * Global variables:
 798:.\Generated_Source\PSoC4/ADC.c ****     *  ADC_countsPer10Volt:  used to convert ADC counts to uVolts.
 799:.\Generated_Source\PSoC4/ADC.c ****     *  ADC_Offset:  Used as the offset while converting ADC counts
 800:.\Generated_Source\PSoC4/ADC.c ****     *   to mVolts.
 801:.\Generated_Source\PSoC4/ADC.c ****     *
 802:.\Generated_Source\PSoC4/ADC.c ****     * Theory:
 803:.\Generated_Source\PSoC4/ADC.c ****     *  Care must be taken to not exceed the maximum value for a 31 bit signed
 804:.\Generated_Source\PSoC4/ADC.c ****     *  number in the conversion to uVolts and at the same time not loose
 805:.\Generated_Source\PSoC4/ADC.c ****     *  resolution.
 806:.\Generated_Source\PSoC4/ADC.c ****     *  To convert adcCounts to microVolts it is required to be multiplied
 807:.\Generated_Source\PSoC4/ADC.c ****     *  on 10 million and later divide on gain in counts per 10V.
 808:.\Generated_Source\PSoC4/ADC.c ****     *
 809:.\Generated_Source\PSoC4/ADC.c ****     *******************************************************************************/
 810:.\Generated_Source\PSoC4/ADC.c ****     int32 ADC_CountsTo_uVolts(uint32 chan, int16 adcCounts)
 811:.\Generated_Source\PSoC4/ADC.c ****     {
 869              		.loc 1 811 0
 870              		.cfi_startproc
 871              	.LVL65:
 872 0000 38B5     		push	{r3, r4, r5, lr}
 873              		.cfi_def_cfa_offset 16
 874              		.cfi_offset 3, -16
 875              		.cfi_offset 4, -12
 876              		.cfi_offset 5, -8
 877              		.cfi_offset 14, -4
 878 0002 051C     		mov	r5, r0
 879 0004 0C1C     		mov	r4, r1
 812:.\Generated_Source\PSoC4/ADC.c ****         int64 uVolts;
 813:.\Generated_Source\PSoC4/ADC.c **** 
 814:.\Generated_Source\PSoC4/ADC.c ****         /* Halt CPU in debug mode if channel is out of valid range */
 815:.\Generated_Source\PSoC4/ADC.c ****         CYASSERT(chan < ADC_TOTAL_CHANNELS_NUM);
 880              		.loc 1 815 0
 881 0006 0128     		cmp	r0, #1
 882 0008 02D9     		bls	.L72
ARM GAS  C:\Users\g\AppData\Local\Temp\ccZUjAgS.s 			page 31


 883              		.loc 1 815 0 is_stmt 0 discriminator 1
 884 000a 0020     		mov	r0, #0
 885              	.LVL66:
 886 000c FFF7FEFF 		bl	CyHalt
 887              	.LVL67:
 888              	.L72:
 816:.\Generated_Source\PSoC4/ADC.c **** 
 817:.\Generated_Source\PSoC4/ADC.c ****         /* Divide the adcCount when accumulate averaging mode selected */
 818:.\Generated_Source\PSoC4/ADC.c ****         #if(ADC_DEFAULT_AVG_MODE == ADC__ACCUMULATE)
 819:.\Generated_Source\PSoC4/ADC.c ****             if((ADC_channelsConfig[chan] & ADC_AVERAGING_EN) != 0u)
 820:.\Generated_Source\PSoC4/ADC.c ****             {
 821:.\Generated_Source\PSoC4/ADC.c ****                 adcCounts /= ADC_DEFAULT_AVG_SAMPLES_DIV;
 822:.\Generated_Source\PSoC4/ADC.c ****             }
 823:.\Generated_Source\PSoC4/ADC.c ****         #endif /* ADC_DEFAULT_AVG_MODE == ADC__ACCUMULATE */
 824:.\Generated_Source\PSoC4/ADC.c **** 
 825:.\Generated_Source\PSoC4/ADC.c ****         /* Subtract ADC offset */
 826:.\Generated_Source\PSoC4/ADC.c ****         adcCounts -= ADC_offset[chan];
 889              		.loc 1 826 0 is_stmt 1
 890 0010 6A00     		lsl	r2, r5, #1
 891 0012 084B     		ldr	r3, .L73
 892 0014 D05A     		ldrh	r0, [r2, r3]
 893 0016 201A     		sub	r0, r4, r0
 894 0018 00B2     		sxth	r0, r0
 895              	.LVL68:
 827:.\Generated_Source\PSoC4/ADC.c **** 
 828:.\Generated_Source\PSoC4/ADC.c ****         uVolts = ((int64)adcCounts * ADC_10UV_COUNTS) / ADC_countsPer10Volt[chan];
 896              		.loc 1 828 0
 897 001a C117     		asr	r1, r0, #31
 898 001c 064A     		ldr	r2, .L73+4
 899 001e 0023     		mov	r3, #0
 900 0020 FFF7FEFF 		bl	__aeabi_lmul
 901              	.LVL69:
 902 0024 AD00     		lsl	r5, r5, #2
 903              	.LVL70:
 904 0026 054B     		ldr	r3, .L73+8
 905 0028 EA58     		ldr	r2, [r5, r3]
 906 002a D317     		asr	r3, r2, #31
 907 002c FFF7FEFF 		bl	__aeabi_ldivmod
 908              	.LVL71:
 829:.\Generated_Source\PSoC4/ADC.c **** 
 830:.\Generated_Source\PSoC4/ADC.c ****         return( (int32)uVolts );
 831:.\Generated_Source\PSoC4/ADC.c ****     }
 909              		.loc 1 831 0
 910              		@ sp needed
 911 0030 38BD     		pop	{r3, r4, r5, pc}
 912              	.L74:
 913 0032 C046     		.align	2
 914              	.L73:
 915 0034 00000000 		.word	ADC_offset
 916 0038 80969800 		.word	10000000
 917 003c 00000000 		.word	ADC_countsPer10Volt
 918              		.cfi_endproc
 919              	.LFE16:
 920              		.size	ADC_CountsTo_uVolts, .-ADC_CountsTo_uVolts
 921              		.global	__aeabi_i2f
 922              		.global	__aeabi_fmul
 923              		.global	__aeabi_fdiv
ARM GAS  C:\Users\g\AppData\Local\Temp\ccZUjAgS.s 			page 32


 924              		.section	.text.ADC_CountsTo_Volts,"ax",%progbits
 925              		.align	2
 926              		.global	ADC_CountsTo_Volts
 927              		.code	16
 928              		.thumb_func
 929              		.type	ADC_CountsTo_Volts, %function
 930              	ADC_CountsTo_Volts:
 931              	.LFB17:
 832:.\Generated_Source\PSoC4/ADC.c **** 
 833:.\Generated_Source\PSoC4/ADC.c **** 
 834:.\Generated_Source\PSoC4/ADC.c ****     /*******************************************************************************
 835:.\Generated_Source\PSoC4/ADC.c ****     * Function Name: ADC_CountsTo_Volts
 836:.\Generated_Source\PSoC4/ADC.c ****     ********************************************************************************
 837:.\Generated_Source\PSoC4/ADC.c ****     *
 838:.\Generated_Source\PSoC4/ADC.c ****     * Summary:
 839:.\Generated_Source\PSoC4/ADC.c ****     *  Converts the ADC output to Volts as a floating point number.
 840:.\Generated_Source\PSoC4/ADC.c ****     *  This function is not available when left data format justification selected.
 841:.\Generated_Source\PSoC4/ADC.c ****     *
 842:.\Generated_Source\PSoC4/ADC.c ****     * Parameters:
 843:.\Generated_Source\PSoC4/ADC.c ****     *  chan: The ADC channel number.
 844:.\Generated_Source\PSoC4/ADC.c ****     *  Result from the ADC conversion
 845:.\Generated_Source\PSoC4/ADC.c ****     *
 846:.\Generated_Source\PSoC4/ADC.c ****     * Return:
 847:.\Generated_Source\PSoC4/ADC.c ****     *  Results in Volts
 848:.\Generated_Source\PSoC4/ADC.c ****     *
 849:.\Generated_Source\PSoC4/ADC.c ****     * Global variables:
 850:.\Generated_Source\PSoC4/ADC.c ****     *  ADC_countsPer10Volt:  used to convert ADC counts to Volts.
 851:.\Generated_Source\PSoC4/ADC.c ****     *  ADC_Offset:  Used as the offset while converting ADC counts
 852:.\Generated_Source\PSoC4/ADC.c ****     *   to mVolts.
 853:.\Generated_Source\PSoC4/ADC.c ****     *
 854:.\Generated_Source\PSoC4/ADC.c ****     *******************************************************************************/
 855:.\Generated_Source\PSoC4/ADC.c ****     float32 ADC_CountsTo_Volts(uint32 chan, int16 adcCounts)
 856:.\Generated_Source\PSoC4/ADC.c ****     {
 932              		.loc 1 856 0
 933              		.cfi_startproc
 934              	.LVL72:
 935 0000 38B5     		push	{r3, r4, r5, lr}
 936              		.cfi_def_cfa_offset 16
 937              		.cfi_offset 3, -16
 938              		.cfi_offset 4, -12
 939              		.cfi_offset 5, -8
 940              		.cfi_offset 14, -4
 941 0002 041C     		mov	r4, r0
 942 0004 0D1C     		mov	r5, r1
 857:.\Generated_Source\PSoC4/ADC.c ****         float32 volts;
 858:.\Generated_Source\PSoC4/ADC.c **** 
 859:.\Generated_Source\PSoC4/ADC.c ****         /* Halt CPU in debug mode if channel is out of valid range */
 860:.\Generated_Source\PSoC4/ADC.c ****         CYASSERT(chan < ADC_TOTAL_CHANNELS_NUM);
 943              		.loc 1 860 0
 944 0006 0128     		cmp	r0, #1
 945 0008 02D9     		bls	.L76
 946              		.loc 1 860 0 is_stmt 0 discriminator 1
 947 000a 0020     		mov	r0, #0
 948              	.LVL73:
 949 000c FFF7FEFF 		bl	CyHalt
 950              	.LVL74:
 951              	.L76:
ARM GAS  C:\Users\g\AppData\Local\Temp\ccZUjAgS.s 			page 33


 861:.\Generated_Source\PSoC4/ADC.c **** 
 862:.\Generated_Source\PSoC4/ADC.c ****         /* Divide the adcCount when accumulate averaging mode selected */
 863:.\Generated_Source\PSoC4/ADC.c ****         #if(ADC_DEFAULT_AVG_MODE == ADC__ACCUMULATE)
 864:.\Generated_Source\PSoC4/ADC.c ****             if((ADC_channelsConfig[chan] & ADC_AVERAGING_EN) != 0u)
 865:.\Generated_Source\PSoC4/ADC.c ****             {
 866:.\Generated_Source\PSoC4/ADC.c ****                 adcCounts /= ADC_DEFAULT_AVG_SAMPLES_DIV;
 867:.\Generated_Source\PSoC4/ADC.c ****             }
 868:.\Generated_Source\PSoC4/ADC.c ****         #endif /* ADC_DEFAULT_AVG_MODE == ADC__ACCUMULATE */
 869:.\Generated_Source\PSoC4/ADC.c **** 
 870:.\Generated_Source\PSoC4/ADC.c ****         /* Subtract ADC offset */
 871:.\Generated_Source\PSoC4/ADC.c ****         adcCounts -= ADC_offset[chan];
 952              		.loc 1 871 0 is_stmt 1
 953 0010 6200     		lsl	r2, r4, #1
 954 0012 0A4B     		ldr	r3, .L77
 955 0014 D05A     		ldrh	r0, [r2, r3]
 956 0016 281A     		sub	r0, r5, r0
 957 0018 00B2     		sxth	r0, r0
 958              	.LVL75:
 872:.\Generated_Source\PSoC4/ADC.c **** 
 873:.\Generated_Source\PSoC4/ADC.c ****         volts = ((float32)adcCounts * ADC_10V_COUNTS) / (float32)ADC_countsPer10Volt[chan];
 959              		.loc 1 873 0
 960 001a FFF7FEFF 		bl	__aeabi_i2f
 961              	.LVL76:
 962 001e 0849     		ldr	r1, .L77+4
 963 0020 FFF7FEFF 		bl	__aeabi_fmul
 964              	.LVL77:
 965 0024 051C     		add	r5, r0, #0
 966 0026 A400     		lsl	r4, r4, #2
 967              	.LVL78:
 968 0028 064B     		ldr	r3, .L77+8
 969 002a E058     		ldr	r0, [r4, r3]
 970 002c FFF7FEFF 		bl	__aeabi_i2f
 971              	.LVL79:
 972 0030 011C     		add	r1, r0, #0
 973 0032 281C     		add	r0, r5, #0
 974 0034 FFF7FEFF 		bl	__aeabi_fdiv
 975              	.LVL80:
 874:.\Generated_Source\PSoC4/ADC.c **** 
 875:.\Generated_Source\PSoC4/ADC.c ****         return( volts );
 876:.\Generated_Source\PSoC4/ADC.c ****     }
 976              		.loc 1 876 0
 977              		@ sp needed
 978 0038 38BD     		pop	{r3, r4, r5, pc}
 979              	.L78:
 980 003a C046     		.align	2
 981              	.L77:
 982 003c 00000000 		.word	ADC_offset
 983 0040 00002041 		.word	1092616192
 984 0044 00000000 		.word	ADC_countsPer10Volt
 985              		.cfi_endproc
 986              	.LFE17:
 987              		.size	ADC_CountsTo_Volts, .-ADC_CountsTo_Volts
 988              		.comm	ADC_countsPer10Volt,8,4
 989              		.comm	ADC_offset,4,4
 990              		.global	ADC_initVar
 991              		.section	.rodata
 992              		.align	2
ARM GAS  C:\Users\g\AppData\Local\Temp\ccZUjAgS.s 			page 34


 993              		.set	.LANCHOR0,. + 0
 994              		.type	ADC_channelsConfig, %object
 995              		.size	ADC_channelsConfig, 8
 996              	ADC_channelsConfig:
 997 0000 00000000 		.space	8
 997      00000000 
 998              		.type	ADC_InputsPlacement.4749, %object
 999              		.size	ADC_InputsPlacement.4749, 2
 1000              	ADC_InputsPlacement.4749:
 1001 0008 02       		.byte	2
 1002 0009 03       		.byte	3
 1003 000a 0000     		.bss
 1004              		.set	.LANCHOR1,. + 0
 1005              		.type	ADC_initVar, %object
 1006              		.size	ADC_initVar, 1
 1007              	ADC_initVar:
 1008 0000 00       		.space	1
 1009              		.text
 1010              	.Letext0:
 1011              		.file 2 ".\\Generated_Source\\PSoC4\\cytypes.h"
 1012              		.file 3 ".\\Generated_Source\\PSoC4\\CyLib.h"