ARM GAS  C:\Users\g\AppData\Local\Temp\cc0mLdPA.s 			page 1


   1              		.cpu cortex-m0
   2              		.fpu softvfp
   3              		.eabi_attribute 20, 1
   4              		.eabi_attribute 21, 1
   5              		.eabi_attribute 23, 3
   6              		.eabi_attribute 24, 1
   7              		.eabi_attribute 25, 1
   8              		.eabi_attribute 26, 1
   9              		.eabi_attribute 30, 1
  10              		.eabi_attribute 34, 0
  11              		.eabi_attribute 18, 4
  12              		.code	16
  13              		.file	"cyfitter_cfg.c"
  14              		.text
  15              	.Ltext0:
  16              		.cfi_sections	.debug_frame
  17              		.section	.text.cfg_write_bytes32,"ax",%progbits
  18              		.align	2
  19              		.code	16
  20              		.thumb_func
  21              		.type	cfg_write_bytes32, %function
  22              	cfg_write_bytes32:
  23              	.LFB3:
  24              		.file 1 ".\\Generated_Source\\PSoC4\\cyfitter_cfg.c"
   1:.\Generated_Source\PSoC4/cyfitter_cfg.c **** /*******************************************************************************
   2:.\Generated_Source\PSoC4/cyfitter_cfg.c **** * File Name: cyfitter_cfg.c
   3:.\Generated_Source\PSoC4/cyfitter_cfg.c **** * 
   4:.\Generated_Source\PSoC4/cyfitter_cfg.c **** * PSoC Creator  3.3 CP3
   5:.\Generated_Source\PSoC4/cyfitter_cfg.c **** *
   6:.\Generated_Source\PSoC4/cyfitter_cfg.c **** * Description:
   7:.\Generated_Source\PSoC4/cyfitter_cfg.c **** * This file contains device initialization code.
   8:.\Generated_Source\PSoC4/cyfitter_cfg.c **** * Except for the user defined sections in CyClockStartupError(), this file should not be modified.
   9:.\Generated_Source\PSoC4/cyfitter_cfg.c **** * This file is automatically generated by PSoC Creator.
  10:.\Generated_Source\PSoC4/cyfitter_cfg.c **** *
  11:.\Generated_Source\PSoC4/cyfitter_cfg.c **** ********************************************************************************
  12:.\Generated_Source\PSoC4/cyfitter_cfg.c **** * Copyright (c) 2007-2016 Cypress Semiconductor.  All rights reserved.
  13:.\Generated_Source\PSoC4/cyfitter_cfg.c **** * You may use this file only in accordance with the license, terms, conditions, 
  14:.\Generated_Source\PSoC4/cyfitter_cfg.c **** * disclaimers, and limitations in the end user license agreement accompanying 
  15:.\Generated_Source\PSoC4/cyfitter_cfg.c **** * the software package with which this file was provided.
  16:.\Generated_Source\PSoC4/cyfitter_cfg.c **** ********************************************************************************/
  17:.\Generated_Source\PSoC4/cyfitter_cfg.c **** 
  18:.\Generated_Source\PSoC4/cyfitter_cfg.c **** #include <string.h>
  19:.\Generated_Source\PSoC4/cyfitter_cfg.c **** #include "cytypes.h"
  20:.\Generated_Source\PSoC4/cyfitter_cfg.c **** #include "cydevice_trm.h"
  21:.\Generated_Source\PSoC4/cyfitter_cfg.c **** #include "cyfitter.h"
  22:.\Generated_Source\PSoC4/cyfitter_cfg.c **** #include "CyLib.h"
  23:.\Generated_Source\PSoC4/cyfitter_cfg.c **** #include "CyLFClk.h"
  24:.\Generated_Source\PSoC4/cyfitter_cfg.c **** #include "cyfitter_cfg.h"
  25:.\Generated_Source\PSoC4/cyfitter_cfg.c **** 
  26:.\Generated_Source\PSoC4/cyfitter_cfg.c **** 
  27:.\Generated_Source\PSoC4/cyfitter_cfg.c **** #if defined(__GNUC__) || defined(__ARMCC_VERSION)
  28:.\Generated_Source\PSoC4/cyfitter_cfg.c ****     #define CYPACKED 
  29:.\Generated_Source\PSoC4/cyfitter_cfg.c ****     #define CYPACKED_ATTR __attribute__ ((packed))
  30:.\Generated_Source\PSoC4/cyfitter_cfg.c ****     #define CYALIGNED __attribute__ ((aligned))
  31:.\Generated_Source\PSoC4/cyfitter_cfg.c ****     #define CY_CFG_UNUSED __attribute__ ((unused))
  32:.\Generated_Source\PSoC4/cyfitter_cfg.c ****     #ifndef CY_CFG_SECTION
  33:.\Generated_Source\PSoC4/cyfitter_cfg.c ****         #define CY_CFG_SECTION __attribute__ ((section(".psocinit")))
ARM GAS  C:\Users\g\AppData\Local\Temp\cc0mLdPA.s 			page 2


  34:.\Generated_Source\PSoC4/cyfitter_cfg.c ****     #endif
  35:.\Generated_Source\PSoC4/cyfitter_cfg.c ****     
  36:.\Generated_Source\PSoC4/cyfitter_cfg.c ****     #if defined(__ARMCC_VERSION)
  37:.\Generated_Source\PSoC4/cyfitter_cfg.c ****         #define CY_CFG_MEMORY_BARRIER() __memory_changed()
  38:.\Generated_Source\PSoC4/cyfitter_cfg.c ****     #else
  39:.\Generated_Source\PSoC4/cyfitter_cfg.c ****         #define CY_CFG_MEMORY_BARRIER() __sync_synchronize()
  40:.\Generated_Source\PSoC4/cyfitter_cfg.c ****     #endif
  41:.\Generated_Source\PSoC4/cyfitter_cfg.c ****     
  42:.\Generated_Source\PSoC4/cyfitter_cfg.c **** #elif defined(__ICCARM__)
  43:.\Generated_Source\PSoC4/cyfitter_cfg.c ****     #include <intrinsics.h>
  44:.\Generated_Source\PSoC4/cyfitter_cfg.c **** 
  45:.\Generated_Source\PSoC4/cyfitter_cfg.c ****     #define CYPACKED __packed
  46:.\Generated_Source\PSoC4/cyfitter_cfg.c ****     #define CYPACKED_ATTR 
  47:.\Generated_Source\PSoC4/cyfitter_cfg.c ****     #define CYALIGNED _Pragma("data_alignment=4")
  48:.\Generated_Source\PSoC4/cyfitter_cfg.c ****     #define CY_CFG_UNUSED _Pragma("diag_suppress=Pe177")
  49:.\Generated_Source\PSoC4/cyfitter_cfg.c ****     #define CY_CFG_SECTION _Pragma("location=\".psocinit\"")
  50:.\Generated_Source\PSoC4/cyfitter_cfg.c ****     
  51:.\Generated_Source\PSoC4/cyfitter_cfg.c ****     #define CY_CFG_MEMORY_BARRIER() __DMB()
  52:.\Generated_Source\PSoC4/cyfitter_cfg.c ****     
  53:.\Generated_Source\PSoC4/cyfitter_cfg.c **** #else
  54:.\Generated_Source\PSoC4/cyfitter_cfg.c ****     #error Unsupported toolchain
  55:.\Generated_Source\PSoC4/cyfitter_cfg.c **** #endif
  56:.\Generated_Source\PSoC4/cyfitter_cfg.c **** 
  57:.\Generated_Source\PSoC4/cyfitter_cfg.c **** 
  58:.\Generated_Source\PSoC4/cyfitter_cfg.c **** CY_CFG_UNUSED
  59:.\Generated_Source\PSoC4/cyfitter_cfg.c **** static void CYMEMZERO(void *s, size_t n);
  60:.\Generated_Source\PSoC4/cyfitter_cfg.c **** CY_CFG_UNUSED
  61:.\Generated_Source\PSoC4/cyfitter_cfg.c **** static void CYMEMZERO(void *s, size_t n)
  62:.\Generated_Source\PSoC4/cyfitter_cfg.c **** {
  63:.\Generated_Source\PSoC4/cyfitter_cfg.c **** 	(void)memset(s, 0, n);
  64:.\Generated_Source\PSoC4/cyfitter_cfg.c **** }
  65:.\Generated_Source\PSoC4/cyfitter_cfg.c **** CY_CFG_UNUSED
  66:.\Generated_Source\PSoC4/cyfitter_cfg.c **** static void CYCONFIGCPY(void *dest, const void *src, size_t n);
  67:.\Generated_Source\PSoC4/cyfitter_cfg.c **** CY_CFG_UNUSED
  68:.\Generated_Source\PSoC4/cyfitter_cfg.c **** static void CYCONFIGCPY(void *dest, const void *src, size_t n)
  69:.\Generated_Source\PSoC4/cyfitter_cfg.c **** {
  70:.\Generated_Source\PSoC4/cyfitter_cfg.c **** 	(void)memcpy(dest, src, n);
  71:.\Generated_Source\PSoC4/cyfitter_cfg.c **** }
  72:.\Generated_Source\PSoC4/cyfitter_cfg.c **** CY_CFG_UNUSED
  73:.\Generated_Source\PSoC4/cyfitter_cfg.c **** static void CYCONFIGCPYCODE(void *dest, const void *src, size_t n);
  74:.\Generated_Source\PSoC4/cyfitter_cfg.c **** CY_CFG_UNUSED
  75:.\Generated_Source\PSoC4/cyfitter_cfg.c **** static void CYCONFIGCPYCODE(void *dest, const void *src, size_t n)
  76:.\Generated_Source\PSoC4/cyfitter_cfg.c **** {
  77:.\Generated_Source\PSoC4/cyfitter_cfg.c **** 	(void)memcpy(dest, src, n);
  78:.\Generated_Source\PSoC4/cyfitter_cfg.c **** }
  79:.\Generated_Source\PSoC4/cyfitter_cfg.c **** 
  80:.\Generated_Source\PSoC4/cyfitter_cfg.c **** 
  81:.\Generated_Source\PSoC4/cyfitter_cfg.c **** 
  82:.\Generated_Source\PSoC4/cyfitter_cfg.c **** /* Clock startup error codes                                                   */
  83:.\Generated_Source\PSoC4/cyfitter_cfg.c **** #define CYCLOCKSTART_NO_ERROR    0u
  84:.\Generated_Source\PSoC4/cyfitter_cfg.c **** #define CYCLOCKSTART_XTAL_ERROR  1u
  85:.\Generated_Source\PSoC4/cyfitter_cfg.c **** #define CYCLOCKSTART_32KHZ_ERROR 2u
  86:.\Generated_Source\PSoC4/cyfitter_cfg.c **** #define CYCLOCKSTART_PLL_ERROR   3u
  87:.\Generated_Source\PSoC4/cyfitter_cfg.c **** 
  88:.\Generated_Source\PSoC4/cyfitter_cfg.c **** #ifdef CY_NEED_CYCLOCKSTARTUPERROR
  89:.\Generated_Source\PSoC4/cyfitter_cfg.c **** /*******************************************************************************
  90:.\Generated_Source\PSoC4/cyfitter_cfg.c **** * Function Name: CyClockStartupError
ARM GAS  C:\Users\g\AppData\Local\Temp\cc0mLdPA.s 			page 3


  91:.\Generated_Source\PSoC4/cyfitter_cfg.c **** ********************************************************************************
  92:.\Generated_Source\PSoC4/cyfitter_cfg.c **** * Summary:
  93:.\Generated_Source\PSoC4/cyfitter_cfg.c **** *  If an error is encountered during clock configuration (crystal startup error,
  94:.\Generated_Source\PSoC4/cyfitter_cfg.c **** *  PLL lock error, etc.), the system will end up here.  Unless reimplemented by
  95:.\Generated_Source\PSoC4/cyfitter_cfg.c **** *  the customer, this function will stop in an infinite loop.
  96:.\Generated_Source\PSoC4/cyfitter_cfg.c **** *
  97:.\Generated_Source\PSoC4/cyfitter_cfg.c **** * Parameters:
  98:.\Generated_Source\PSoC4/cyfitter_cfg.c **** *   void
  99:.\Generated_Source\PSoC4/cyfitter_cfg.c **** *
 100:.\Generated_Source\PSoC4/cyfitter_cfg.c **** * Return:
 101:.\Generated_Source\PSoC4/cyfitter_cfg.c **** *   void
 102:.\Generated_Source\PSoC4/cyfitter_cfg.c **** *
 103:.\Generated_Source\PSoC4/cyfitter_cfg.c **** *******************************************************************************/
 104:.\Generated_Source\PSoC4/cyfitter_cfg.c **** CY_CFG_UNUSED
 105:.\Generated_Source\PSoC4/cyfitter_cfg.c **** static void CyClockStartupError(uint8 errorCode);
 106:.\Generated_Source\PSoC4/cyfitter_cfg.c **** CY_CFG_UNUSED
 107:.\Generated_Source\PSoC4/cyfitter_cfg.c **** static void CyClockStartupError(uint8 errorCode)
 108:.\Generated_Source\PSoC4/cyfitter_cfg.c **** {
 109:.\Generated_Source\PSoC4/cyfitter_cfg.c ****     /* To remove the compiler warning if errorCode not used.                */
 110:.\Generated_Source\PSoC4/cyfitter_cfg.c ****     errorCode = errorCode;
 111:.\Generated_Source\PSoC4/cyfitter_cfg.c **** 
 112:.\Generated_Source\PSoC4/cyfitter_cfg.c ****     /* `#START CyClockStartupError` */
 113:.\Generated_Source\PSoC4/cyfitter_cfg.c **** 
 114:.\Generated_Source\PSoC4/cyfitter_cfg.c ****     /* If we have a clock startup error (bad MHz crystal, PLL lock, etc.),  */
 115:.\Generated_Source\PSoC4/cyfitter_cfg.c ****     /* we will end up here to allow the customer to implement something to  */
 116:.\Generated_Source\PSoC4/cyfitter_cfg.c ****     /* deal with the clock condition.                                       */
 117:.\Generated_Source\PSoC4/cyfitter_cfg.c **** 
 118:.\Generated_Source\PSoC4/cyfitter_cfg.c ****     /* `#END` */
 119:.\Generated_Source\PSoC4/cyfitter_cfg.c **** 
 120:.\Generated_Source\PSoC4/cyfitter_cfg.c ****     /* If nothing else, stop here since the clocks have not started         */
 121:.\Generated_Source\PSoC4/cyfitter_cfg.c ****     /* correctly.                                                           */
 122:.\Generated_Source\PSoC4/cyfitter_cfg.c ****     while(1) {}
 123:.\Generated_Source\PSoC4/cyfitter_cfg.c **** }
 124:.\Generated_Source\PSoC4/cyfitter_cfg.c **** #endif
 125:.\Generated_Source\PSoC4/cyfitter_cfg.c **** 
 126:.\Generated_Source\PSoC4/cyfitter_cfg.c **** #define CY_CFG_BASE_ADDR_COUNT 10u
 127:.\Generated_Source\PSoC4/cyfitter_cfg.c **** CYPACKED typedef struct
 128:.\Generated_Source\PSoC4/cyfitter_cfg.c **** {
 129:.\Generated_Source\PSoC4/cyfitter_cfg.c **** 	uint8 offset;
 130:.\Generated_Source\PSoC4/cyfitter_cfg.c **** 	uint8 value;
 131:.\Generated_Source\PSoC4/cyfitter_cfg.c **** } CYPACKED_ATTR cy_cfg_addrvalue_t;
 132:.\Generated_Source\PSoC4/cyfitter_cfg.c **** 
 133:.\Generated_Source\PSoC4/cyfitter_cfg.c **** 
 134:.\Generated_Source\PSoC4/cyfitter_cfg.c **** 
 135:.\Generated_Source\PSoC4/cyfitter_cfg.c **** /*******************************************************************************
 136:.\Generated_Source\PSoC4/cyfitter_cfg.c **** * Function Name: cfg_write_bytes32
 137:.\Generated_Source\PSoC4/cyfitter_cfg.c **** ********************************************************************************
 138:.\Generated_Source\PSoC4/cyfitter_cfg.c **** * Summary:
 139:.\Generated_Source\PSoC4/cyfitter_cfg.c **** *  This function is used for setting up the chip configuration areas that
 140:.\Generated_Source\PSoC4/cyfitter_cfg.c **** *  contain relatively sparse data.
 141:.\Generated_Source\PSoC4/cyfitter_cfg.c **** *
 142:.\Generated_Source\PSoC4/cyfitter_cfg.c **** * Parameters:
 143:.\Generated_Source\PSoC4/cyfitter_cfg.c **** *   void
 144:.\Generated_Source\PSoC4/cyfitter_cfg.c **** *
 145:.\Generated_Source\PSoC4/cyfitter_cfg.c **** * Return:
 146:.\Generated_Source\PSoC4/cyfitter_cfg.c **** *   void
 147:.\Generated_Source\PSoC4/cyfitter_cfg.c **** *
ARM GAS  C:\Users\g\AppData\Local\Temp\cc0mLdPA.s 			page 4


 148:.\Generated_Source\PSoC4/cyfitter_cfg.c **** *******************************************************************************/
 149:.\Generated_Source\PSoC4/cyfitter_cfg.c **** static void cfg_write_bytes32(const uint32 addr_table[], const cy_cfg_addrvalue_t data_table[]);
 150:.\Generated_Source\PSoC4/cyfitter_cfg.c **** static void cfg_write_bytes32(const uint32 addr_table[], const cy_cfg_addrvalue_t data_table[])
 151:.\Generated_Source\PSoC4/cyfitter_cfg.c **** {
  25              		.loc 1 151 0
  26              		.cfi_startproc
  27              	.LVL0:
  28 0000 F0B5     		push	{r4, r5, r6, r7, lr}
  29              		.cfi_def_cfa_offset 20
  30              		.cfi_offset 4, -20
  31              		.cfi_offset 5, -16
  32              		.cfi_offset 6, -12
  33              		.cfi_offset 7, -8
  34              		.cfi_offset 14, -4
  35              	.LVL1:
 152:.\Generated_Source\PSoC4/cyfitter_cfg.c **** 	/* For 32-bit little-endian architectures */
 153:.\Generated_Source\PSoC4/cyfitter_cfg.c **** 	uint32 i, j = 0u;
  36              		.loc 1 153 0
  37 0002 0025     		mov	r5, #0
 154:.\Generated_Source\PSoC4/cyfitter_cfg.c **** 	for (i = 0u; i < CY_CFG_BASE_ADDR_COUNT; i++)
  38              		.loc 1 154 0
  39 0004 0027     		mov	r7, #0
  40 0006 11E0     		b	.L2
  41              	.LVL2:
  42              	.L5:
  43              	.LBB2:
 155:.\Generated_Source\PSoC4/cyfitter_cfg.c **** 	{
 156:.\Generated_Source\PSoC4/cyfitter_cfg.c **** 		uint32 baseAddr = addr_table[i];
  44              		.loc 1 156 0
  45 0008 BB00     		lsl	r3, r7, #2
  46 000a C658     		ldr	r6, [r0, r3]
  47              	.LVL3:
 157:.\Generated_Source\PSoC4/cyfitter_cfg.c **** 		uint8 count = (uint8)baseAddr;
  48              		.loc 1 157 0
  49 000c F3B2     		uxtb	r3, r6
  50              	.LVL4:
 158:.\Generated_Source\PSoC4/cyfitter_cfg.c **** 		baseAddr &= 0xFFFFFF00u;
  51              		.loc 1 158 0
  52 000e FF22     		mov	r2, #255
  53 0010 9643     		bic	r6, r2
  54              	.LVL5:
 159:.\Generated_Source\PSoC4/cyfitter_cfg.c **** 		while (count != 0u)
  55              		.loc 1 159 0
  56 0012 08E0     		b	.L3
  57              	.L4:
 160:.\Generated_Source\PSoC4/cyfitter_cfg.c **** 		{
 161:.\Generated_Source\PSoC4/cyfitter_cfg.c **** 			CY_SET_XTND_REG8((void CYFAR *)(baseAddr + data_table[j].offset), data_table[j].value);
  58              		.loc 1 161 0
  59 0014 6A00     		lsl	r2, r5, #1
  60 0016 8A18     		add	r2, r1, r2
  61 0018 1478     		ldrb	r4, [r2]
  62 001a A419     		add	r4, r4, r6
  63 001c 5278     		ldrb	r2, [r2, #1]
  64 001e 2270     		strb	r2, [r4]
 162:.\Generated_Source\PSoC4/cyfitter_cfg.c **** 			j++;
  65              		.loc 1 162 0
  66 0020 0135     		add	r5, r5, #1
ARM GAS  C:\Users\g\AppData\Local\Temp\cc0mLdPA.s 			page 5


  67              	.LVL6:
 163:.\Generated_Source\PSoC4/cyfitter_cfg.c **** 			count--;
  68              		.loc 1 163 0
  69 0022 013B     		sub	r3, r3, #1
  70              	.LVL7:
  71 0024 DBB2     		uxtb	r3, r3
  72              	.LVL8:
  73              	.L3:
 159:.\Generated_Source\PSoC4/cyfitter_cfg.c **** 		{
  74              		.loc 1 159 0
  75 0026 002B     		cmp	r3, #0
  76 0028 F4D1     		bne	.L4
  77              	.LBE2:
 154:.\Generated_Source\PSoC4/cyfitter_cfg.c **** 	{
  78              		.loc 1 154 0 discriminator 2
  79 002a 0137     		add	r7, r7, #1
  80              	.LVL9:
  81              	.L2:
 154:.\Generated_Source\PSoC4/cyfitter_cfg.c **** 	{
  82              		.loc 1 154 0 is_stmt 0 discriminator 1
  83 002c 092F     		cmp	r7, #9
  84 002e EBD9     		bls	.L5
 164:.\Generated_Source\PSoC4/cyfitter_cfg.c **** 		}
 165:.\Generated_Source\PSoC4/cyfitter_cfg.c **** 	}
 166:.\Generated_Source\PSoC4/cyfitter_cfg.c **** }
  85              		.loc 1 166 0 is_stmt 1
  86              		@ sp needed
  87              	.LVL10:
  88              	.LVL11:
  89 0030 F0BD     		pop	{r4, r5, r6, r7, pc}
  90              		.cfi_endproc
  91              	.LFE3:
  92              		.size	cfg_write_bytes32, .-cfg_write_bytes32
  93 0032 C046     		.section	.text.AnalogSetDefault,"ax",%progbits
  94              		.align	2
  95              		.code	16
  96              		.thumb_func
  97              		.type	AnalogSetDefault, %function
  98              	AnalogSetDefault:
  99              	.LFB5:
 167:.\Generated_Source\PSoC4/cyfitter_cfg.c **** 
 168:.\Generated_Source\PSoC4/cyfitter_cfg.c **** 
 169:.\Generated_Source\PSoC4/cyfitter_cfg.c **** /*******************************************************************************
 170:.\Generated_Source\PSoC4/cyfitter_cfg.c **** * Function Name: ClockSetup
 171:.\Generated_Source\PSoC4/cyfitter_cfg.c **** ********************************************************************************
 172:.\Generated_Source\PSoC4/cyfitter_cfg.c **** *
 173:.\Generated_Source\PSoC4/cyfitter_cfg.c **** * Summary:
 174:.\Generated_Source\PSoC4/cyfitter_cfg.c **** *   Performs the initialization of all of the clocks in the device based on the
 175:.\Generated_Source\PSoC4/cyfitter_cfg.c **** *   settings in the Clock tab of the DWR.  This includes enabling the requested
 176:.\Generated_Source\PSoC4/cyfitter_cfg.c **** *   clocks and setting the necessary dividers to produce the desired frequency. 
 177:.\Generated_Source\PSoC4/cyfitter_cfg.c **** *
 178:.\Generated_Source\PSoC4/cyfitter_cfg.c **** * Parameters:
 179:.\Generated_Source\PSoC4/cyfitter_cfg.c **** *   void
 180:.\Generated_Source\PSoC4/cyfitter_cfg.c **** *
 181:.\Generated_Source\PSoC4/cyfitter_cfg.c **** * Return:
 182:.\Generated_Source\PSoC4/cyfitter_cfg.c **** *   void
 183:.\Generated_Source\PSoC4/cyfitter_cfg.c **** *
ARM GAS  C:\Users\g\AppData\Local\Temp\cc0mLdPA.s 			page 6


 184:.\Generated_Source\PSoC4/cyfitter_cfg.c **** *******************************************************************************/
 185:.\Generated_Source\PSoC4/cyfitter_cfg.c **** static void ClockSetup(void);
 186:.\Generated_Source\PSoC4/cyfitter_cfg.c **** CY_CFG_SECTION
 187:.\Generated_Source\PSoC4/cyfitter_cfg.c **** static void ClockSetup(void)
 188:.\Generated_Source\PSoC4/cyfitter_cfg.c **** {
 189:.\Generated_Source\PSoC4/cyfitter_cfg.c **** 	/* Enable HALF_EN before trimming for the flash accelerator. */
 190:.\Generated_Source\PSoC4/cyfitter_cfg.c **** 	CY_SET_REG32((void CYXDATA *)(CYREG_CLK_SELECT), (CY_GET_REG32((void *)CYREG_CLK_SELECT) | 0x00040
 191:.\Generated_Source\PSoC4/cyfitter_cfg.c **** 
 192:.\Generated_Source\PSoC4/cyfitter_cfg.c **** 	/* Setup and trim IMO based on desired frequency. */
 193:.\Generated_Source\PSoC4/cyfitter_cfg.c **** 	CySysClkWriteImoFreq(48u);
 194:.\Generated_Source\PSoC4/cyfitter_cfg.c **** 	/* CYDEV_CLK_ILO_CONFIG Starting address: CYDEV_CLK_ILO_CONFIG */
 195:.\Generated_Source\PSoC4/cyfitter_cfg.c **** 	CY_SET_XTND_REG32((void CYFAR *)(CYREG_CLK_ILO_CONFIG), 0x80000006u);
 196:.\Generated_Source\PSoC4/cyfitter_cfg.c **** 
 197:.\Generated_Source\PSoC4/cyfitter_cfg.c **** 
 198:.\Generated_Source\PSoC4/cyfitter_cfg.c **** 	/* CYDEV_CLK_SELECT00 Starting address: CYDEV_CLK_SELECT00 */
 199:.\Generated_Source\PSoC4/cyfitter_cfg.c **** 	CY_SET_XTND_REG32((void CYFAR *)(CYREG_CLK_SELECT03), 0x00000012u);
 200:.\Generated_Source\PSoC4/cyfitter_cfg.c **** 	CY_SET_XTND_REG32((void CYFAR *)(CYREG_CLK_SELECT07), 0x00000011u);
 201:.\Generated_Source\PSoC4/cyfitter_cfg.c **** 	CY_SET_XTND_REG32((void CYFAR *)(CYREG_CLK_SELECT08), 0x00000030u);
 202:.\Generated_Source\PSoC4/cyfitter_cfg.c **** 	CY_SET_XTND_REG32((void CYFAR *)(CYREG_CLK_SELECT09), 0x00000010u);
 203:.\Generated_Source\PSoC4/cyfitter_cfg.c **** 	CY_SET_XTND_REG32((void CYFAR *)(CYREG_CLK_SELECT10), 0x00000031u);
 204:.\Generated_Source\PSoC4/cyfitter_cfg.c **** 	CY_SET_XTND_REG32((void CYFAR *)(CYREG_CLK_SELECT11), 0x00000020u);
 205:.\Generated_Source\PSoC4/cyfitter_cfg.c **** 	CY_SET_XTND_REG32((void CYFAR *)(CYREG_CLK_SELECT12), 0x00000021u);
 206:.\Generated_Source\PSoC4/cyfitter_cfg.c **** 
 207:.\Generated_Source\PSoC4/cyfitter_cfg.c **** 	/* CYDEV_CLK_IMO_CONFIG Starting address: CYDEV_CLK_IMO_CONFIG */
 208:.\Generated_Source\PSoC4/cyfitter_cfg.c **** 	CY_SET_XTND_REG32((void CYFAR *)(CYREG_CLK_IMO_CONFIG), 0x82000000u);
 209:.\Generated_Source\PSoC4/cyfitter_cfg.c **** 
 210:.\Generated_Source\PSoC4/cyfitter_cfg.c **** 	/* CYDEV_CLK_SELECT Starting address: CYDEV_CLK_SELECT */
 211:.\Generated_Source\PSoC4/cyfitter_cfg.c **** 	CY_SET_XTND_REG32((void CYFAR *)(CYREG_CLK_SELECT), 0x00040000u);
 212:.\Generated_Source\PSoC4/cyfitter_cfg.c **** 
 213:.\Generated_Source\PSoC4/cyfitter_cfg.c **** 	/* CYDEV_CLK_DIVIDER_A00 Starting address: CYDEV_CLK_DIVIDER_A00 */
 214:.\Generated_Source\PSoC4/cyfitter_cfg.c **** 	CY_SET_XTND_REG32((void CYFAR *)(CYREG_CLK_DIVIDER_A00), 0x80000000u);
 215:.\Generated_Source\PSoC4/cyfitter_cfg.c **** 
 216:.\Generated_Source\PSoC4/cyfitter_cfg.c **** 	/* CYDEV_CLK_DIVIDER_B00 Starting address: CYDEV_CLK_DIVIDER_B00 */
 217:.\Generated_Source\PSoC4/cyfitter_cfg.c **** 	CY_SET_XTND_REG32((void CYFAR *)(CYREG_CLK_DIVIDER_B00), 0x80000000u);
 218:.\Generated_Source\PSoC4/cyfitter_cfg.c **** 
 219:.\Generated_Source\PSoC4/cyfitter_cfg.c **** 	/* CYDEV_CLK_DIVIDER_C00 Starting address: CYDEV_CLK_DIVIDER_C00 */
 220:.\Generated_Source\PSoC4/cyfitter_cfg.c **** 	CY_SET_XTND_REG32((void CYFAR *)(CYREG_CLK_DIVIDER_C00), 0x80000000u);
 221:.\Generated_Source\PSoC4/cyfitter_cfg.c **** 
 222:.\Generated_Source\PSoC4/cyfitter_cfg.c **** 	/* CYDEV_CLK_DIVIDER_A01 Starting address: CYDEV_CLK_DIVIDER_A01 */
 223:.\Generated_Source\PSoC4/cyfitter_cfg.c **** 	CY_SET_XTND_REG32((void CYFAR *)(CYREG_CLK_DIVIDER_A01), 0x80000003u);
 224:.\Generated_Source\PSoC4/cyfitter_cfg.c **** 
 225:.\Generated_Source\PSoC4/cyfitter_cfg.c **** 	/* CYDEV_CLK_DIVIDER_B01 Starting address: CYDEV_CLK_DIVIDER_B01 */
 226:.\Generated_Source\PSoC4/cyfitter_cfg.c **** 	CY_SET_XTND_REG32((void CYFAR *)(CYREG_CLK_DIVIDER_B01), 0x80000003u);
 227:.\Generated_Source\PSoC4/cyfitter_cfg.c **** 
 228:.\Generated_Source\PSoC4/cyfitter_cfg.c **** 	/* CYDEV_CLK_DIVIDER_C01 Starting address: CYDEV_CLK_DIVIDER_C01 */
 229:.\Generated_Source\PSoC4/cyfitter_cfg.c **** 	CY_SET_XTND_REG32((void CYFAR *)(CYREG_CLK_DIVIDER_C01), 0x80000003u);
 230:.\Generated_Source\PSoC4/cyfitter_cfg.c **** 
 231:.\Generated_Source\PSoC4/cyfitter_cfg.c **** 	/* CYDEV_CLK_DIVIDER_A02 Starting address: CYDEV_CLK_DIVIDER_A02 */
 232:.\Generated_Source\PSoC4/cyfitter_cfg.c **** 	CY_SET_XTND_REG32((void CYFAR *)(CYREG_CLK_DIVIDER_A02), 0x800000CFu);
 233:.\Generated_Source\PSoC4/cyfitter_cfg.c **** 
 234:.\Generated_Source\PSoC4/cyfitter_cfg.c **** 	(void)CyIntSetVector(9u, &CySysWdtIsr);
 235:.\Generated_Source\PSoC4/cyfitter_cfg.c **** 	CyIntEnable(9u);
 236:.\Generated_Source\PSoC4/cyfitter_cfg.c **** 	CY_SET_XTND_REG32((void CYFAR *)(CYREG_WDT_CONFIG), 0x00000000u);
 237:.\Generated_Source\PSoC4/cyfitter_cfg.c **** }
 238:.\Generated_Source\PSoC4/cyfitter_cfg.c **** 
 239:.\Generated_Source\PSoC4/cyfitter_cfg.c **** 
 240:.\Generated_Source\PSoC4/cyfitter_cfg.c **** /* Analog API Functions */
ARM GAS  C:\Users\g\AppData\Local\Temp\cc0mLdPA.s 			page 7


 241:.\Generated_Source\PSoC4/cyfitter_cfg.c **** 
 242:.\Generated_Source\PSoC4/cyfitter_cfg.c **** 
 243:.\Generated_Source\PSoC4/cyfitter_cfg.c **** /*******************************************************************************
 244:.\Generated_Source\PSoC4/cyfitter_cfg.c **** * Function Name: AnalogSetDefault
 245:.\Generated_Source\PSoC4/cyfitter_cfg.c **** ********************************************************************************
 246:.\Generated_Source\PSoC4/cyfitter_cfg.c **** *
 247:.\Generated_Source\PSoC4/cyfitter_cfg.c **** * Summary:
 248:.\Generated_Source\PSoC4/cyfitter_cfg.c **** *  Sets up the analog portions of the chip to default values based on chip
 249:.\Generated_Source\PSoC4/cyfitter_cfg.c **** *  configuration options from the project.
 250:.\Generated_Source\PSoC4/cyfitter_cfg.c **** *
 251:.\Generated_Source\PSoC4/cyfitter_cfg.c **** * Parameters:
 252:.\Generated_Source\PSoC4/cyfitter_cfg.c **** *  void
 253:.\Generated_Source\PSoC4/cyfitter_cfg.c **** *
 254:.\Generated_Source\PSoC4/cyfitter_cfg.c **** * Return:
 255:.\Generated_Source\PSoC4/cyfitter_cfg.c **** *  void
 256:.\Generated_Source\PSoC4/cyfitter_cfg.c **** *
 257:.\Generated_Source\PSoC4/cyfitter_cfg.c **** *******************************************************************************/
 258:.\Generated_Source\PSoC4/cyfitter_cfg.c **** static void AnalogSetDefault(void);
 259:.\Generated_Source\PSoC4/cyfitter_cfg.c **** static void AnalogSetDefault(void)
 260:.\Generated_Source\PSoC4/cyfitter_cfg.c **** {
 100              		.loc 1 260 0
 101              		.cfi_startproc
 261:.\Generated_Source\PSoC4/cyfitter_cfg.c **** 	CY_SET_XTND_REG32((void CYFAR *)CYREG_SAR_MUX_SWITCH0, 0x0000000Cu);
 102              		.loc 1 261 0
 103 0000 0C23     		mov	r3, #12
 104 0002 024A     		ldr	r2, .L7
 105 0004 1360     		str	r3, [r2]
 262:.\Generated_Source\PSoC4/cyfitter_cfg.c **** 	CY_SET_XTND_REG32((void CYFAR *)CYREG_SAR_MUX_SWITCH_HW_CTRL, 0x0000000Cu);
 106              		.loc 1 262 0
 107 0006 024A     		ldr	r2, .L7+4
 108 0008 1360     		str	r3, [r2]
 263:.\Generated_Source\PSoC4/cyfitter_cfg.c **** 	/* Variable VDDA is selected; no pumps are enabled by default */
 264:.\Generated_Source\PSoC4/cyfitter_cfg.c **** }
 109              		.loc 1 264 0
 110              		@ sp needed
 111 000a 7047     		bx	lr
 112              	.L8:
 113              		.align	2
 114              	.L7:
 115 000c 00031A40 		.word	1075446528
 116 0010 40031A40 		.word	1075446592
 117              		.cfi_endproc
 118              	.LFE5:
 119              		.size	AnalogSetDefault, .-AnalogSetDefault
 120              		.section	.text.CYMEMZERO,"ax",%progbits
 121              		.align	2
 122              		.code	16
 123              		.thumb_func
 124              		.type	CYMEMZERO, %function
 125              	CYMEMZERO:
 126              	.LFB0:
  62:.\Generated_Source\PSoC4/cyfitter_cfg.c **** 	(void)memset(s, 0, n);
 127              		.loc 1 62 0
 128              		.cfi_startproc
 129              	.LVL12:
 130 0000 08B5     		push	{r3, lr}
 131              		.cfi_def_cfa_offset 8
ARM GAS  C:\Users\g\AppData\Local\Temp\cc0mLdPA.s 			page 8


 132              		.cfi_offset 3, -8
 133              		.cfi_offset 14, -4
 134 0002 0A1C     		mov	r2, r1
  63:.\Generated_Source\PSoC4/cyfitter_cfg.c **** }
 135              		.loc 1 63 0
 136 0004 0021     		mov	r1, #0
 137              	.LVL13:
 138 0006 FFF7FEFF 		bl	memset
 139              	.LVL14:
  64:.\Generated_Source\PSoC4/cyfitter_cfg.c **** CY_CFG_UNUSED
 140              		.loc 1 64 0
 141              		@ sp needed
 142 000a 08BD     		pop	{r3, pc}
 143              		.cfi_endproc
 144              	.LFE0:
 145              		.size	CYMEMZERO, .-CYMEMZERO
 146              		.section	.psocinit,"ax",%progbits
 147              		.align	2
 148              		.code	16
 149              		.thumb_func
 150              		.type	ClockSetup, %function
 151              	ClockSetup:
 152              	.LFB4:
 188:.\Generated_Source\PSoC4/cyfitter_cfg.c **** 	/* Enable HALF_EN before trimming for the flash accelerator. */
 153              		.loc 1 188 0
 154              		.cfi_startproc
 155 0000 38B5     		push	{r3, r4, r5, lr}
 156              		.cfi_def_cfa_offset 16
 157              		.cfi_offset 3, -16
 158              		.cfi_offset 4, -12
 159              		.cfi_offset 5, -8
 160              		.cfi_offset 14, -4
 190:.\Generated_Source\PSoC4/cyfitter_cfg.c **** 
 161              		.loc 1 190 0
 162 0002 214C     		ldr	r4, .L11
 163 0004 2368     		ldr	r3, [r4]
 164 0006 8025     		mov	r5, #128
 165 0008 ED02     		lsl	r5, r5, #11
 166 000a 2B43     		orr	r3, r5
 167 000c 2360     		str	r3, [r4]
 193:.\Generated_Source\PSoC4/cyfitter_cfg.c **** 	/* CYDEV_CLK_ILO_CONFIG Starting address: CYDEV_CLK_ILO_CONFIG */
 168              		.loc 1 193 0
 169 000e 3020     		mov	r0, #48
 170 0010 FFF7FEFF 		bl	CySysClkWriteImoFreq
 171              	.LVL15:
 195:.\Generated_Source\PSoC4/cyfitter_cfg.c **** 
 172              		.loc 1 195 0
 173 0014 1D4A     		ldr	r2, .L11+4
 174 0016 1E4B     		ldr	r3, .L11+8
 175 0018 1A60     		str	r2, [r3]
 199:.\Generated_Source\PSoC4/cyfitter_cfg.c **** 	CY_SET_XTND_REG32((void CYFAR *)(CYREG_CLK_SELECT07), 0x00000011u);
 176              		.loc 1 199 0
 177 001a 1222     		mov	r2, #18
 178 001c 1D4B     		ldr	r3, .L11+12
 179 001e 1A60     		str	r2, [r3]
 200:.\Generated_Source\PSoC4/cyfitter_cfg.c **** 	CY_SET_XTND_REG32((void CYFAR *)(CYREG_CLK_SELECT08), 0x00000030u);
 180              		.loc 1 200 0
ARM GAS  C:\Users\g\AppData\Local\Temp\cc0mLdPA.s 			page 9


 181 0020 013A     		sub	r2, r2, #1
 182 0022 1D4B     		ldr	r3, .L11+16
 183 0024 1A60     		str	r2, [r3]
 201:.\Generated_Source\PSoC4/cyfitter_cfg.c **** 	CY_SET_XTND_REG32((void CYFAR *)(CYREG_CLK_SELECT09), 0x00000010u);
 184              		.loc 1 201 0
 185 0026 1F32     		add	r2, r2, #31
 186 0028 1C4B     		ldr	r3, .L11+20
 187 002a 1A60     		str	r2, [r3]
 202:.\Generated_Source\PSoC4/cyfitter_cfg.c **** 	CY_SET_XTND_REG32((void CYFAR *)(CYREG_CLK_SELECT10), 0x00000031u);
 188              		.loc 1 202 0
 189 002c 203A     		sub	r2, r2, #32
 190 002e 1C4B     		ldr	r3, .L11+24
 191 0030 1A60     		str	r2, [r3]
 203:.\Generated_Source\PSoC4/cyfitter_cfg.c **** 	CY_SET_XTND_REG32((void CYFAR *)(CYREG_CLK_SELECT11), 0x00000020u);
 192              		.loc 1 203 0
 193 0032 2132     		add	r2, r2, #33
 194 0034 1B4B     		ldr	r3, .L11+28
 195 0036 1A60     		str	r2, [r3]
 204:.\Generated_Source\PSoC4/cyfitter_cfg.c **** 	CY_SET_XTND_REG32((void CYFAR *)(CYREG_CLK_SELECT12), 0x00000021u);
 196              		.loc 1 204 0
 197 0038 113A     		sub	r2, r2, #17
 198 003a 1B4B     		ldr	r3, .L11+32
 199 003c 1A60     		str	r2, [r3]
 205:.\Generated_Source\PSoC4/cyfitter_cfg.c **** 
 200              		.loc 1 205 0
 201 003e 0132     		add	r2, r2, #1
 202 0040 1A4B     		ldr	r3, .L11+36
 203 0042 1A60     		str	r2, [r3]
 208:.\Generated_Source\PSoC4/cyfitter_cfg.c **** 
 204              		.loc 1 208 0
 205 0044 8222     		mov	r2, #130
 206 0046 1206     		lsl	r2, r2, #24
 207 0048 194B     		ldr	r3, .L11+40
 208 004a 1A60     		str	r2, [r3]
 211:.\Generated_Source\PSoC4/cyfitter_cfg.c **** 
 209              		.loc 1 211 0
 210 004c 2560     		str	r5, [r4]
 214:.\Generated_Source\PSoC4/cyfitter_cfg.c **** 
 211              		.loc 1 214 0
 212 004e 8023     		mov	r3, #128
 213 0050 1B06     		lsl	r3, r3, #24
 214 0052 184A     		ldr	r2, .L11+44
 215 0054 1360     		str	r3, [r2]
 217:.\Generated_Source\PSoC4/cyfitter_cfg.c **** 
 216              		.loc 1 217 0
 217 0056 184A     		ldr	r2, .L11+48
 218 0058 1360     		str	r3, [r2]
 220:.\Generated_Source\PSoC4/cyfitter_cfg.c **** 
 219              		.loc 1 220 0
 220 005a 184A     		ldr	r2, .L11+52
 221 005c 1360     		str	r3, [r2]
 223:.\Generated_Source\PSoC4/cyfitter_cfg.c **** 
 222              		.loc 1 223 0
 223 005e 184B     		ldr	r3, .L11+56
 224 0060 184A     		ldr	r2, .L11+60
 225 0062 1360     		str	r3, [r2]
 226:.\Generated_Source\PSoC4/cyfitter_cfg.c **** 
ARM GAS  C:\Users\g\AppData\Local\Temp\cc0mLdPA.s 			page 10


 226              		.loc 1 226 0
 227 0064 184A     		ldr	r2, .L11+64
 228 0066 1360     		str	r3, [r2]
 229:.\Generated_Source\PSoC4/cyfitter_cfg.c **** 
 229              		.loc 1 229 0
 230 0068 184A     		ldr	r2, .L11+68
 231 006a 1360     		str	r3, [r2]
 232:.\Generated_Source\PSoC4/cyfitter_cfg.c **** 
 232              		.loc 1 232 0
 233 006c 184A     		ldr	r2, .L11+72
 234 006e 194B     		ldr	r3, .L11+76
 235 0070 1A60     		str	r2, [r3]
 234:.\Generated_Source\PSoC4/cyfitter_cfg.c **** 	CyIntEnable(9u);
 236              		.loc 1 234 0
 237 0072 0920     		mov	r0, #9
 238 0074 1849     		ldr	r1, .L11+80
 239 0076 FFF7FEFF 		bl	CyIntSetVector
 240              	.LVL16:
 235:.\Generated_Source\PSoC4/cyfitter_cfg.c **** 	CY_SET_XTND_REG32((void CYFAR *)(CYREG_WDT_CONFIG), 0x00000000u);
 241              		.loc 1 235 0
 242 007a 0920     		mov	r0, #9
 243 007c FFF7FEFF 		bl	CyIntEnable
 244              	.LVL17:
 236:.\Generated_Source\PSoC4/cyfitter_cfg.c **** }
 245              		.loc 1 236 0
 246 0080 0022     		mov	r2, #0
 247 0082 164B     		ldr	r3, .L11+84
 248 0084 1A60     		str	r2, [r3]
 237:.\Generated_Source\PSoC4/cyfitter_cfg.c **** 
 249              		.loc 1 237 0
 250              		@ sp needed
 251 0086 38BD     		pop	{r3, r4, r5, pc}
 252              	.L12:
 253              		.align	2
 254              	.L11:
 255 0088 00010B40 		.word	1074462976
 256 008c 06000080 		.word	-2147483642
 257 0090 04010B40 		.word	1074462980
 258 0094 0C020240 		.word	1073873420
 259 0098 1C020240 		.word	1073873436
 260 009c 20020240 		.word	1073873440
 261 00a0 24020240 		.word	1073873444
 262 00a4 28020240 		.word	1073873448
 263 00a8 2C020240 		.word	1073873452
 264 00ac 30020240 		.word	1073873456
 265 00b0 08010B40 		.word	1074462984
 266 00b4 00000240 		.word	1073872896
 267 00b8 40000240 		.word	1073872960
 268 00bc 80000240 		.word	1073873024
 269 00c0 03000080 		.word	-2147483645
 270 00c4 04000240 		.word	1073872900
 271 00c8 44000240 		.word	1073872964
 272 00cc 84000240 		.word	1073873028
 273 00d0 CF000080 		.word	-2147483441
 274 00d4 08000240 		.word	1073872904
 275 00d8 00000000 		.word	CySysWdtIsr
 276 00dc 0C020B40 		.word	1074463244
ARM GAS  C:\Users\g\AppData\Local\Temp\cc0mLdPA.s 			page 11


 277              		.cfi_endproc
 278              	.LFE4:
 279              		.size	ClockSetup, .-ClockSetup
 280              		.section	.text.SetAnalogRoutingPumps,"ax",%progbits
 281              		.align	2
 282              		.global	SetAnalogRoutingPumps
 283              		.code	16
 284              		.thumb_func
 285              		.type	SetAnalogRoutingPumps, %function
 286              	SetAnalogRoutingPumps:
 287              	.LFB6:
 265:.\Generated_Source\PSoC4/cyfitter_cfg.c **** 
 266:.\Generated_Source\PSoC4/cyfitter_cfg.c **** 
 267:.\Generated_Source\PSoC4/cyfitter_cfg.c **** /*******************************************************************************
 268:.\Generated_Source\PSoC4/cyfitter_cfg.c **** * Function Name: SetAnalogRoutingPumps
 269:.\Generated_Source\PSoC4/cyfitter_cfg.c **** ********************************************************************************
 270:.\Generated_Source\PSoC4/cyfitter_cfg.c **** *
 271:.\Generated_Source\PSoC4/cyfitter_cfg.c **** * Summary:
 272:.\Generated_Source\PSoC4/cyfitter_cfg.c **** * Enables or disables the analog pumps feeding analog routing switches.
 273:.\Generated_Source\PSoC4/cyfitter_cfg.c **** * Intended to be called at startup, based on the Vdda system configuration;
 274:.\Generated_Source\PSoC4/cyfitter_cfg.c **** * may be called during operation when the user informs us that the Vdda voltage crossed the pump th
 275:.\Generated_Source\PSoC4/cyfitter_cfg.c **** *
 276:.\Generated_Source\PSoC4/cyfitter_cfg.c **** * Parameters:
 277:.\Generated_Source\PSoC4/cyfitter_cfg.c **** *  enabled - 1 to enable the pumps, 0 to disable the pumps
 278:.\Generated_Source\PSoC4/cyfitter_cfg.c **** *
 279:.\Generated_Source\PSoC4/cyfitter_cfg.c **** * Return:
 280:.\Generated_Source\PSoC4/cyfitter_cfg.c **** *  void
 281:.\Generated_Source\PSoC4/cyfitter_cfg.c **** *
 282:.\Generated_Source\PSoC4/cyfitter_cfg.c **** *******************************************************************************/
 283:.\Generated_Source\PSoC4/cyfitter_cfg.c **** void SetAnalogRoutingPumps(uint8 enabled)
 284:.\Generated_Source\PSoC4/cyfitter_cfg.c **** {
 288              		.loc 1 284 0
 289              		.cfi_startproc
 290              	.LVL18:
 285:.\Generated_Source\PSoC4/cyfitter_cfg.c **** 	uint32 regValue = CY_GET_XTND_REG32((void *)(CYREG_SAR_PUMP_CTRL));
 291              		.loc 1 285 0
 292 0000 064B     		ldr	r3, .L16
 293 0002 1B68     		ldr	r3, [r3]
 294              	.LVL19:
 286:.\Generated_Source\PSoC4/cyfitter_cfg.c **** 	if (enabled != 0u)
 295              		.loc 1 286 0
 296 0004 0028     		cmp	r0, #0
 297 0006 03D0     		beq	.L14
 287:.\Generated_Source\PSoC4/cyfitter_cfg.c **** 	{
 288:.\Generated_Source\PSoC4/cyfitter_cfg.c **** 		regValue |= 0x80000000u;
 298              		.loc 1 288 0
 299 0008 8022     		mov	r2, #128
 300 000a 1206     		lsl	r2, r2, #24
 301 000c 1343     		orr	r3, r2
 302              	.LVL20:
 303 000e 01E0     		b	.L15
 304              	.L14:
 289:.\Generated_Source\PSoC4/cyfitter_cfg.c **** 	}
 290:.\Generated_Source\PSoC4/cyfitter_cfg.c **** 	else
 291:.\Generated_Source\PSoC4/cyfitter_cfg.c **** 	{
 292:.\Generated_Source\PSoC4/cyfitter_cfg.c **** 		regValue &= ~0x80000000u;
 305              		.loc 1 292 0
ARM GAS  C:\Users\g\AppData\Local\Temp\cc0mLdPA.s 			page 12


 306 0010 5B00     		lsl	r3, r3, #1
 307              	.LVL21:
 308 0012 5B08     		lsr	r3, r3, #1
 309              	.LVL22:
 310              	.L15:
 293:.\Generated_Source\PSoC4/cyfitter_cfg.c **** 	}
 294:.\Generated_Source\PSoC4/cyfitter_cfg.c **** 	CY_SET_XTND_REG32((void *)(CYREG_SAR_PUMP_CTRL), regValue);
 311              		.loc 1 294 0
 312 0014 014A     		ldr	r2, .L16
 313 0016 1360     		str	r3, [r2]
 295:.\Generated_Source\PSoC4/cyfitter_cfg.c **** }
 314              		.loc 1 295 0
 315              		@ sp needed
 316 0018 7047     		bx	lr
 317              	.L17:
 318 001a C046     		.align	2
 319              	.L16:
 320 001c 80031A40 		.word	1075446656
 321              		.cfi_endproc
 322              	.LFE6:
 323              		.size	SetAnalogRoutingPumps, .-SetAnalogRoutingPumps
 324              		.section	.psocinit
 325              		.align	2
 326              		.global	cyfitter_cfg
 327              		.code	16
 328              		.thumb_func
 329              		.type	cyfitter_cfg, %function
 330              	cyfitter_cfg:
 331              	.LFB7:
 296:.\Generated_Source\PSoC4/cyfitter_cfg.c **** 
 297:.\Generated_Source\PSoC4/cyfitter_cfg.c **** #define CY_AMUX_UNUSED CYREG_CM0_ROM_DWT
 298:.\Generated_Source\PSoC4/cyfitter_cfg.c **** 
 299:.\Generated_Source\PSoC4/cyfitter_cfg.c **** 
 300:.\Generated_Source\PSoC4/cyfitter_cfg.c **** /*******************************************************************************
 301:.\Generated_Source\PSoC4/cyfitter_cfg.c **** * Function Name: cyfitter_cfg
 302:.\Generated_Source\PSoC4/cyfitter_cfg.c **** ********************************************************************************
 303:.\Generated_Source\PSoC4/cyfitter_cfg.c **** * Summary:
 304:.\Generated_Source\PSoC4/cyfitter_cfg.c **** *  This function is called by the start-up code for the selected device. It
 305:.\Generated_Source\PSoC4/cyfitter_cfg.c **** *  performs all of the necessary device configuration based on the design
 306:.\Generated_Source\PSoC4/cyfitter_cfg.c **** *  settings.  This includes settings from the Design Wide Resources (DWR) such
 307:.\Generated_Source\PSoC4/cyfitter_cfg.c **** *  as Clocks and Pins as well as any component configuration that is necessary.
 308:.\Generated_Source\PSoC4/cyfitter_cfg.c **** *
 309:.\Generated_Source\PSoC4/cyfitter_cfg.c **** * Parameters:  
 310:.\Generated_Source\PSoC4/cyfitter_cfg.c **** *   void
 311:.\Generated_Source\PSoC4/cyfitter_cfg.c **** *
 312:.\Generated_Source\PSoC4/cyfitter_cfg.c **** * Return:
 313:.\Generated_Source\PSoC4/cyfitter_cfg.c **** *   void
 314:.\Generated_Source\PSoC4/cyfitter_cfg.c **** *
 315:.\Generated_Source\PSoC4/cyfitter_cfg.c **** *******************************************************************************/
 316:.\Generated_Source\PSoC4/cyfitter_cfg.c **** CY_CFG_SECTION
 317:.\Generated_Source\PSoC4/cyfitter_cfg.c **** void cyfitter_cfg(void)
 318:.\Generated_Source\PSoC4/cyfitter_cfg.c **** {
 332              		.loc 1 318 0
 333              		.cfi_startproc
 334 00e0 10B5     		push	{r4, lr}
 335              		.cfi_def_cfa_offset 8
 336              		.cfi_offset 4, -8
ARM GAS  C:\Users\g\AppData\Local\Temp\cc0mLdPA.s 			page 13


 337              		.cfi_offset 14, -4
 319:.\Generated_Source\PSoC4/cyfitter_cfg.c **** 	/* Disable interrupts by default. Let user enable if/when they want. */
 320:.\Generated_Source\PSoC4/cyfitter_cfg.c **** 	CyGlobalIntDisable;
 338              		.loc 1 320 0
 339              	@ 320 ".\Generated_Source\PSoC4\cyfitter_cfg.c" 1
 340 00e2 72B6     		CPSID   i
 341              	@ 0 "" 2
 321:.\Generated_Source\PSoC4/cyfitter_cfg.c **** 
 322:.\Generated_Source\PSoC4/cyfitter_cfg.c **** 	/* Enable the clock in the interrupt controller for the routed interrupts */
 323:.\Generated_Source\PSoC4/cyfitter_cfg.c **** 	CY_SET_REG8((void *)CYREG_UDB_UDBIF_INT_CLK_CTL, 0x01u);
 342              		.loc 1 323 0
 343              		.code	16
 344 00e4 0122     		mov	r2, #1
 345 00e6 404B     		ldr	r3, .L21
 346 00e8 1A70     		strb	r2, [r3]
 347              	.LVL23:
 348              	.LBB3:
 324:.\Generated_Source\PSoC4/cyfitter_cfg.c **** 	{
 325:.\Generated_Source\PSoC4/cyfitter_cfg.c **** 		static const uint32 CYCODE cy_cfg_addr_table[] = {
 326:.\Generated_Source\PSoC4/cyfitter_cfg.c **** 			0x400F0002u, /* Base address: 0x400F0000 Count: 2 */
 327:.\Generated_Source\PSoC4/cyfitter_cfg.c **** 			0x400F3060u, /* Base address: 0x400F3000 Count: 96 */
 328:.\Generated_Source\PSoC4/cyfitter_cfg.c **** 			0x400F313Cu, /* Base address: 0x400F3100 Count: 60 */
 329:.\Generated_Source\PSoC4/cyfitter_cfg.c **** 			0x400F3248u, /* Base address: 0x400F3200 Count: 72 */
 330:.\Generated_Source\PSoC4/cyfitter_cfg.c **** 			0x400F334Fu, /* Base address: 0x400F3300 Count: 79 */
 331:.\Generated_Source\PSoC4/cyfitter_cfg.c **** 			0x400F400Bu, /* Base address: 0x400F4000 Count: 11 */
 332:.\Generated_Source\PSoC4/cyfitter_cfg.c **** 			0x400F410Cu, /* Base address: 0x400F4100 Count: 12 */
 333:.\Generated_Source\PSoC4/cyfitter_cfg.c **** 			0x400F4205u, /* Base address: 0x400F4200 Count: 5 */
 334:.\Generated_Source\PSoC4/cyfitter_cfg.c **** 			0x400F430Du, /* Base address: 0x400F4300 Count: 13 */
 335:.\Generated_Source\PSoC4/cyfitter_cfg.c **** 			0x400F6002u, /* Base address: 0x400F6000 Count: 2 */
 336:.\Generated_Source\PSoC4/cyfitter_cfg.c **** 		};
 337:.\Generated_Source\PSoC4/cyfitter_cfg.c **** 
 338:.\Generated_Source\PSoC4/cyfitter_cfg.c **** 		static const cy_cfg_addrvalue_t CYCODE cy_cfg_data_table[] = {
 339:.\Generated_Source\PSoC4/cyfitter_cfg.c **** 			{0x80u, 0x0Fu},
 340:.\Generated_Source\PSoC4/cyfitter_cfg.c **** 			{0x82u, 0x6Fu},
 341:.\Generated_Source\PSoC4/cyfitter_cfg.c **** 			{0x00u, 0x08u},
 342:.\Generated_Source\PSoC4/cyfitter_cfg.c **** 			{0x05u, 0x08u},
 343:.\Generated_Source\PSoC4/cyfitter_cfg.c **** 			{0x07u, 0x04u},
 344:.\Generated_Source\PSoC4/cyfitter_cfg.c **** 			{0x11u, 0x02u},
 345:.\Generated_Source\PSoC4/cyfitter_cfg.c **** 			{0x18u, 0x01u},
 346:.\Generated_Source\PSoC4/cyfitter_cfg.c **** 			{0x1Bu, 0x03u},
 347:.\Generated_Source\PSoC4/cyfitter_cfg.c **** 			{0x1Du, 0x0Cu},
 348:.\Generated_Source\PSoC4/cyfitter_cfg.c **** 			{0x24u, 0x03u},
 349:.\Generated_Source\PSoC4/cyfitter_cfg.c **** 			{0x2Bu, 0x0Cu},
 350:.\Generated_Source\PSoC4/cyfitter_cfg.c **** 			{0x2Cu, 0x03u},
 351:.\Generated_Source\PSoC4/cyfitter_cfg.c **** 			{0x2Eu, 0x0Cu},
 352:.\Generated_Source\PSoC4/cyfitter_cfg.c **** 			{0x30u, 0x04u},
 353:.\Generated_Source\PSoC4/cyfitter_cfg.c **** 			{0x31u, 0x01u},
 354:.\Generated_Source\PSoC4/cyfitter_cfg.c **** 			{0x32u, 0x02u},
 355:.\Generated_Source\PSoC4/cyfitter_cfg.c **** 			{0x33u, 0x04u},
 356:.\Generated_Source\PSoC4/cyfitter_cfg.c **** 			{0x34u, 0x08u},
 357:.\Generated_Source\PSoC4/cyfitter_cfg.c **** 			{0x35u, 0x08u},
 358:.\Generated_Source\PSoC4/cyfitter_cfg.c **** 			{0x36u, 0x01u},
 359:.\Generated_Source\PSoC4/cyfitter_cfg.c **** 			{0x37u, 0x02u},
 360:.\Generated_Source\PSoC4/cyfitter_cfg.c **** 			{0x38u, 0x88u},
 361:.\Generated_Source\PSoC4/cyfitter_cfg.c **** 			{0x3Eu, 0x50u},
 362:.\Generated_Source\PSoC4/cyfitter_cfg.c **** 			{0x3Fu, 0x54u},
 363:.\Generated_Source\PSoC4/cyfitter_cfg.c **** 			{0x40u, 0x51u},
ARM GAS  C:\Users\g\AppData\Local\Temp\cc0mLdPA.s 			page 14


 364:.\Generated_Source\PSoC4/cyfitter_cfg.c **** 			{0x41u, 0x02u},
 365:.\Generated_Source\PSoC4/cyfitter_cfg.c **** 			{0x49u, 0xFFu},
 366:.\Generated_Source\PSoC4/cyfitter_cfg.c **** 			{0x4Au, 0xFFu},
 367:.\Generated_Source\PSoC4/cyfitter_cfg.c **** 			{0x4Bu, 0xFFu},
 368:.\Generated_Source\PSoC4/cyfitter_cfg.c **** 			{0x4Du, 0xA0u},
 369:.\Generated_Source\PSoC4/cyfitter_cfg.c **** 			{0x4Fu, 0x01u},
 370:.\Generated_Source\PSoC4/cyfitter_cfg.c **** 			{0x50u, 0x18u},
 371:.\Generated_Source\PSoC4/cyfitter_cfg.c **** 			{0x54u, 0x0Fu},
 372:.\Generated_Source\PSoC4/cyfitter_cfg.c **** 			{0x56u, 0x04u},
 373:.\Generated_Source\PSoC4/cyfitter_cfg.c **** 			{0x58u, 0x04u},
 374:.\Generated_Source\PSoC4/cyfitter_cfg.c **** 			{0x59u, 0x04u},
 375:.\Generated_Source\PSoC4/cyfitter_cfg.c **** 			{0x5Au, 0x04u},
 376:.\Generated_Source\PSoC4/cyfitter_cfg.c **** 			{0x5Bu, 0x04u},
 377:.\Generated_Source\PSoC4/cyfitter_cfg.c **** 			{0x5Fu, 0x01u},
 378:.\Generated_Source\PSoC4/cyfitter_cfg.c **** 			{0x60u, 0x40u},
 379:.\Generated_Source\PSoC4/cyfitter_cfg.c **** 			{0x62u, 0x80u},
 380:.\Generated_Source\PSoC4/cyfitter_cfg.c **** 			{0x64u, 0x40u},
 381:.\Generated_Source\PSoC4/cyfitter_cfg.c **** 			{0x65u, 0x40u},
 382:.\Generated_Source\PSoC4/cyfitter_cfg.c **** 			{0x66u, 0x80u},
 383:.\Generated_Source\PSoC4/cyfitter_cfg.c **** 			{0x68u, 0x40u},
 384:.\Generated_Source\PSoC4/cyfitter_cfg.c **** 			{0x6Au, 0x80u},
 385:.\Generated_Source\PSoC4/cyfitter_cfg.c **** 			{0x6Cu, 0x40u},
 386:.\Generated_Source\PSoC4/cyfitter_cfg.c **** 			{0x6Du, 0x20u},
 387:.\Generated_Source\PSoC4/cyfitter_cfg.c **** 			{0x6Eu, 0x80u},
 388:.\Generated_Source\PSoC4/cyfitter_cfg.c **** 			{0x83u, 0x03u},
 389:.\Generated_Source\PSoC4/cyfitter_cfg.c **** 			{0x8Au, 0x80u},
 390:.\Generated_Source\PSoC4/cyfitter_cfg.c **** 			{0x94u, 0x5Bu},
 391:.\Generated_Source\PSoC4/cyfitter_cfg.c **** 			{0x96u, 0x04u},
 392:.\Generated_Source\PSoC4/cyfitter_cfg.c **** 			{0x98u, 0x37u},
 393:.\Generated_Source\PSoC4/cyfitter_cfg.c **** 			{0x9Cu, 0x6Cu},
 394:.\Generated_Source\PSoC4/cyfitter_cfg.c **** 			{0x9Du, 0x01u},
 395:.\Generated_Source\PSoC4/cyfitter_cfg.c **** 			{0x9Eu, 0x01u},
 396:.\Generated_Source\PSoC4/cyfitter_cfg.c **** 			{0xA0u, 0x6Cu},
 397:.\Generated_Source\PSoC4/cyfitter_cfg.c **** 			{0xA2u, 0x02u},
 398:.\Generated_Source\PSoC4/cyfitter_cfg.c **** 			{0xA6u, 0x0Fu},
 399:.\Generated_Source\PSoC4/cyfitter_cfg.c **** 			{0xABu, 0x04u},
 400:.\Generated_Source\PSoC4/cyfitter_cfg.c **** 			{0xACu, 0x08u},
 401:.\Generated_Source\PSoC4/cyfitter_cfg.c **** 			{0xAEu, 0x01u},
 402:.\Generated_Source\PSoC4/cyfitter_cfg.c **** 			{0xB2u, 0x80u},
 403:.\Generated_Source\PSoC4/cyfitter_cfg.c **** 			{0xB3u, 0x01u},
 404:.\Generated_Source\PSoC4/cyfitter_cfg.c **** 			{0xB4u, 0x70u},
 405:.\Generated_Source\PSoC4/cyfitter_cfg.c **** 			{0xB5u, 0x04u},
 406:.\Generated_Source\PSoC4/cyfitter_cfg.c **** 			{0xB6u, 0x0Fu},
 407:.\Generated_Source\PSoC4/cyfitter_cfg.c **** 			{0xB7u, 0x02u},
 408:.\Generated_Source\PSoC4/cyfitter_cfg.c **** 			{0xB8u, 0x20u},
 409:.\Generated_Source\PSoC4/cyfitter_cfg.c **** 			{0xBFu, 0x04u},
 410:.\Generated_Source\PSoC4/cyfitter_cfg.c **** 			{0xC0u, 0x15u},
 411:.\Generated_Source\PSoC4/cyfitter_cfg.c **** 			{0xC1u, 0x06u},
 412:.\Generated_Source\PSoC4/cyfitter_cfg.c **** 			{0xC5u, 0x0Cu},
 413:.\Generated_Source\PSoC4/cyfitter_cfg.c **** 			{0xC6u, 0x23u},
 414:.\Generated_Source\PSoC4/cyfitter_cfg.c **** 			{0xC7u, 0x4Eu},
 415:.\Generated_Source\PSoC4/cyfitter_cfg.c **** 			{0xC8u, 0x3Du},
 416:.\Generated_Source\PSoC4/cyfitter_cfg.c **** 			{0xC9u, 0xFFu},
 417:.\Generated_Source\PSoC4/cyfitter_cfg.c **** 			{0xCAu, 0xFFu},
 418:.\Generated_Source\PSoC4/cyfitter_cfg.c **** 			{0xCBu, 0xFFu},
 419:.\Generated_Source\PSoC4/cyfitter_cfg.c **** 			{0xCDu, 0xAFu},
 420:.\Generated_Source\PSoC4/cyfitter_cfg.c **** 			{0xCEu, 0x07u},
ARM GAS  C:\Users\g\AppData\Local\Temp\cc0mLdPA.s 			page 15


 421:.\Generated_Source\PSoC4/cyfitter_cfg.c **** 			{0xCFu, 0x01u},
 422:.\Generated_Source\PSoC4/cyfitter_cfg.c **** 			{0xD0u, 0x18u},
 423:.\Generated_Source\PSoC4/cyfitter_cfg.c **** 			{0xD8u, 0x04u},
 424:.\Generated_Source\PSoC4/cyfitter_cfg.c **** 			{0xD9u, 0x04u},
 425:.\Generated_Source\PSoC4/cyfitter_cfg.c **** 			{0xDAu, 0x04u},
 426:.\Generated_Source\PSoC4/cyfitter_cfg.c **** 			{0xDFu, 0x01u},
 427:.\Generated_Source\PSoC4/cyfitter_cfg.c **** 			{0xE0u, 0x40u},
 428:.\Generated_Source\PSoC4/cyfitter_cfg.c **** 			{0xE2u, 0x80u},
 429:.\Generated_Source\PSoC4/cyfitter_cfg.c **** 			{0xE4u, 0x40u},
 430:.\Generated_Source\PSoC4/cyfitter_cfg.c **** 			{0xE5u, 0x40u},
 431:.\Generated_Source\PSoC4/cyfitter_cfg.c **** 			{0xE6u, 0x80u},
 432:.\Generated_Source\PSoC4/cyfitter_cfg.c **** 			{0xE8u, 0x40u},
 433:.\Generated_Source\PSoC4/cyfitter_cfg.c **** 			{0xEAu, 0x80u},
 434:.\Generated_Source\PSoC4/cyfitter_cfg.c **** 			{0xECu, 0x40u},
 435:.\Generated_Source\PSoC4/cyfitter_cfg.c **** 			{0xEDu, 0x20u},
 436:.\Generated_Source\PSoC4/cyfitter_cfg.c **** 			{0xEEu, 0x80u},
 437:.\Generated_Source\PSoC4/cyfitter_cfg.c **** 			{0x01u, 0x02u},
 438:.\Generated_Source\PSoC4/cyfitter_cfg.c **** 			{0x05u, 0x10u},
 439:.\Generated_Source\PSoC4/cyfitter_cfg.c **** 			{0x09u, 0x20u},
 440:.\Generated_Source\PSoC4/cyfitter_cfg.c **** 			{0x0Au, 0x08u},
 441:.\Generated_Source\PSoC4/cyfitter_cfg.c **** 			{0x0Cu, 0x40u},
 442:.\Generated_Source\PSoC4/cyfitter_cfg.c **** 			{0x0Du, 0x20u},
 443:.\Generated_Source\PSoC4/cyfitter_cfg.c **** 			{0x0Eu, 0x20u},
 444:.\Generated_Source\PSoC4/cyfitter_cfg.c **** 			{0x10u, 0x20u},
 445:.\Generated_Source\PSoC4/cyfitter_cfg.c **** 			{0x11u, 0x80u},
 446:.\Generated_Source\PSoC4/cyfitter_cfg.c **** 			{0x15u, 0x40u},
 447:.\Generated_Source\PSoC4/cyfitter_cfg.c **** 			{0x17u, 0x09u},
 448:.\Generated_Source\PSoC4/cyfitter_cfg.c **** 			{0x18u, 0x01u},
 449:.\Generated_Source\PSoC4/cyfitter_cfg.c **** 			{0x19u, 0x02u},
 450:.\Generated_Source\PSoC4/cyfitter_cfg.c **** 			{0x1Au, 0x06u},
 451:.\Generated_Source\PSoC4/cyfitter_cfg.c **** 			{0x1Bu, 0x04u},
 452:.\Generated_Source\PSoC4/cyfitter_cfg.c **** 			{0x1Cu, 0x08u},
 453:.\Generated_Source\PSoC4/cyfitter_cfg.c **** 			{0x1Du, 0x24u},
 454:.\Generated_Source\PSoC4/cyfitter_cfg.c **** 			{0x1Eu, 0x02u},
 455:.\Generated_Source\PSoC4/cyfitter_cfg.c **** 			{0x1Fu, 0x90u},
 456:.\Generated_Source\PSoC4/cyfitter_cfg.c **** 			{0x20u, 0x10u},
 457:.\Generated_Source\PSoC4/cyfitter_cfg.c **** 			{0x21u, 0x02u},
 458:.\Generated_Source\PSoC4/cyfitter_cfg.c **** 			{0x22u, 0x10u},
 459:.\Generated_Source\PSoC4/cyfitter_cfg.c **** 			{0x23u, 0x01u},
 460:.\Generated_Source\PSoC4/cyfitter_cfg.c **** 			{0x26u, 0xA8u},
 461:.\Generated_Source\PSoC4/cyfitter_cfg.c **** 			{0x27u, 0x08u},
 462:.\Generated_Source\PSoC4/cyfitter_cfg.c **** 			{0x2Bu, 0x04u},
 463:.\Generated_Source\PSoC4/cyfitter_cfg.c **** 			{0x2Fu, 0x04u},
 464:.\Generated_Source\PSoC4/cyfitter_cfg.c **** 			{0x30u, 0x20u},
 465:.\Generated_Source\PSoC4/cyfitter_cfg.c **** 			{0x31u, 0x02u},
 466:.\Generated_Source\PSoC4/cyfitter_cfg.c **** 			{0x32u, 0x80u},
 467:.\Generated_Source\PSoC4/cyfitter_cfg.c **** 			{0x36u, 0x80u},
 468:.\Generated_Source\PSoC4/cyfitter_cfg.c **** 			{0x38u, 0x04u},
 469:.\Generated_Source\PSoC4/cyfitter_cfg.c **** 			{0x3Au, 0x20u},
 470:.\Generated_Source\PSoC4/cyfitter_cfg.c **** 			{0x3Bu, 0x10u},
 471:.\Generated_Source\PSoC4/cyfitter_cfg.c **** 			{0x3Fu, 0x02u},
 472:.\Generated_Source\PSoC4/cyfitter_cfg.c **** 			{0x40u, 0x05u},
 473:.\Generated_Source\PSoC4/cyfitter_cfg.c **** 			{0x45u, 0x80u},
 474:.\Generated_Source\PSoC4/cyfitter_cfg.c **** 			{0x48u, 0x01u},
 475:.\Generated_Source\PSoC4/cyfitter_cfg.c **** 			{0x4Eu, 0x01u},
 476:.\Generated_Source\PSoC4/cyfitter_cfg.c **** 			{0x4Fu, 0x24u},
 477:.\Generated_Source\PSoC4/cyfitter_cfg.c **** 			{0x54u, 0x20u},
ARM GAS  C:\Users\g\AppData\Local\Temp\cc0mLdPA.s 			page 16


 478:.\Generated_Source\PSoC4/cyfitter_cfg.c **** 			{0x55u, 0x40u},
 479:.\Generated_Source\PSoC4/cyfitter_cfg.c **** 			{0x56u, 0x28u},
 480:.\Generated_Source\PSoC4/cyfitter_cfg.c **** 			{0x57u, 0x01u},
 481:.\Generated_Source\PSoC4/cyfitter_cfg.c **** 			{0x58u, 0x02u},
 482:.\Generated_Source\PSoC4/cyfitter_cfg.c **** 			{0x5Au, 0x28u},
 483:.\Generated_Source\PSoC4/cyfitter_cfg.c **** 			{0x5Bu, 0x40u},
 484:.\Generated_Source\PSoC4/cyfitter_cfg.c **** 			{0x63u, 0x40u},
 485:.\Generated_Source\PSoC4/cyfitter_cfg.c **** 			{0x85u, 0x10u},
 486:.\Generated_Source\PSoC4/cyfitter_cfg.c **** 			{0x87u, 0x40u},
 487:.\Generated_Source\PSoC4/cyfitter_cfg.c **** 			{0xC0u, 0x48u},
 488:.\Generated_Source\PSoC4/cyfitter_cfg.c **** 			{0xC2u, 0xE2u},
 489:.\Generated_Source\PSoC4/cyfitter_cfg.c **** 			{0xC4u, 0xB5u},
 490:.\Generated_Source\PSoC4/cyfitter_cfg.c **** 			{0xCAu, 0x24u},
 491:.\Generated_Source\PSoC4/cyfitter_cfg.c **** 			{0xCCu, 0x1Du},
 492:.\Generated_Source\PSoC4/cyfitter_cfg.c **** 			{0xCEu, 0x82u},
 493:.\Generated_Source\PSoC4/cyfitter_cfg.c **** 			{0xD0u, 0x1Cu},
 494:.\Generated_Source\PSoC4/cyfitter_cfg.c **** 			{0xD2u, 0x38u},
 495:.\Generated_Source\PSoC4/cyfitter_cfg.c **** 			{0xD6u, 0x0Fu},
 496:.\Generated_Source\PSoC4/cyfitter_cfg.c **** 			{0xD8u, 0x01u},
 497:.\Generated_Source\PSoC4/cyfitter_cfg.c **** 			{0x02u, 0x08u},
 498:.\Generated_Source\PSoC4/cyfitter_cfg.c **** 			{0x04u, 0x01u},
 499:.\Generated_Source\PSoC4/cyfitter_cfg.c **** 			{0x05u, 0x7Fu},
 500:.\Generated_Source\PSoC4/cyfitter_cfg.c **** 			{0x0Au, 0x01u},
 501:.\Generated_Source\PSoC4/cyfitter_cfg.c **** 			{0x0Cu, 0xA4u},
 502:.\Generated_Source\PSoC4/cyfitter_cfg.c **** 			{0x0Du, 0x0Eu},
 503:.\Generated_Source\PSoC4/cyfitter_cfg.c **** 			{0x0Eu, 0x50u},
 504:.\Generated_Source\PSoC4/cyfitter_cfg.c **** 			{0x0Fu, 0xF0u},
 505:.\Generated_Source\PSoC4/cyfitter_cfg.c **** 			{0x11u, 0xC5u},
 506:.\Generated_Source\PSoC4/cyfitter_cfg.c **** 			{0x13u, 0x3Au},
 507:.\Generated_Source\PSoC4/cyfitter_cfg.c **** 			{0x14u, 0xF4u},
 508:.\Generated_Source\PSoC4/cyfitter_cfg.c **** 			{0x15u, 0x96u},
 509:.\Generated_Source\PSoC4/cyfitter_cfg.c **** 			{0x17u, 0x68u},
 510:.\Generated_Source\PSoC4/cyfitter_cfg.c **** 			{0x18u, 0x50u},
 511:.\Generated_Source\PSoC4/cyfitter_cfg.c **** 			{0x1Au, 0xA4u},
 512:.\Generated_Source\PSoC4/cyfitter_cfg.c **** 			{0x1Bu, 0x01u},
 513:.\Generated_Source\PSoC4/cyfitter_cfg.c **** 			{0x1Cu, 0xC4u},
 514:.\Generated_Source\PSoC4/cyfitter_cfg.c **** 			{0x1Eu, 0x30u},
 515:.\Generated_Source\PSoC4/cyfitter_cfg.c **** 			{0x21u, 0xA3u},
 516:.\Generated_Source\PSoC4/cyfitter_cfg.c **** 			{0x22u, 0x01u},
 517:.\Generated_Source\PSoC4/cyfitter_cfg.c **** 			{0x23u, 0x5Cu},
 518:.\Generated_Source\PSoC4/cyfitter_cfg.c **** 			{0x24u, 0x70u},
 519:.\Generated_Source\PSoC4/cyfitter_cfg.c **** 			{0x29u, 0xFEu},
 520:.\Generated_Source\PSoC4/cyfitter_cfg.c **** 			{0x2Au, 0x02u},
 521:.\Generated_Source\PSoC4/cyfitter_cfg.c **** 			{0x2Bu, 0x01u},
 522:.\Generated_Source\PSoC4/cyfitter_cfg.c **** 			{0x2Cu, 0x34u},
 523:.\Generated_Source\PSoC4/cyfitter_cfg.c **** 			{0x2Eu, 0xC0u},
 524:.\Generated_Source\PSoC4/cyfitter_cfg.c **** 			{0x30u, 0x02u},
 525:.\Generated_Source\PSoC4/cyfitter_cfg.c **** 			{0x31u, 0xFFu},
 526:.\Generated_Source\PSoC4/cyfitter_cfg.c **** 			{0x32u, 0xF0u},
 527:.\Generated_Source\PSoC4/cyfitter_cfg.c **** 			{0x34u, 0x0Cu},
 528:.\Generated_Source\PSoC4/cyfitter_cfg.c **** 			{0x36u, 0x01u},
 529:.\Generated_Source\PSoC4/cyfitter_cfg.c **** 			{0x3Eu, 0x40u},
 530:.\Generated_Source\PSoC4/cyfitter_cfg.c **** 			{0x3Fu, 0x01u},
 531:.\Generated_Source\PSoC4/cyfitter_cfg.c **** 			{0x52u, 0x80u},
 532:.\Generated_Source\PSoC4/cyfitter_cfg.c **** 			{0x54u, 0x0Fu},
 533:.\Generated_Source\PSoC4/cyfitter_cfg.c **** 			{0x58u, 0x04u},
 534:.\Generated_Source\PSoC4/cyfitter_cfg.c **** 			{0x59u, 0x04u},
ARM GAS  C:\Users\g\AppData\Local\Temp\cc0mLdPA.s 			page 17


 535:.\Generated_Source\PSoC4/cyfitter_cfg.c **** 			{0x5Bu, 0x04u},
 536:.\Generated_Source\PSoC4/cyfitter_cfg.c **** 			{0x5Fu, 0x05u},
 537:.\Generated_Source\PSoC4/cyfitter_cfg.c **** 			{0x80u, 0xC0u},
 538:.\Generated_Source\PSoC4/cyfitter_cfg.c **** 			{0x81u, 0x94u},
 539:.\Generated_Source\PSoC4/cyfitter_cfg.c **** 			{0x82u, 0x24u},
 540:.\Generated_Source\PSoC4/cyfitter_cfg.c **** 			{0x83u, 0x60u},
 541:.\Generated_Source\PSoC4/cyfitter_cfg.c **** 			{0x86u, 0x07u},
 542:.\Generated_Source\PSoC4/cyfitter_cfg.c **** 			{0x87u, 0x0Fu},
 543:.\Generated_Source\PSoC4/cyfitter_cfg.c **** 			{0x88u, 0xB7u},
 544:.\Generated_Source\PSoC4/cyfitter_cfg.c **** 			{0x89u, 0x73u},
 545:.\Generated_Source\PSoC4/cyfitter_cfg.c **** 			{0x8Au, 0x40u},
 546:.\Generated_Source\PSoC4/cyfitter_cfg.c **** 			{0x8Cu, 0xC1u},
 547:.\Generated_Source\PSoC4/cyfitter_cfg.c **** 			{0x8Eu, 0x12u},
 548:.\Generated_Source\PSoC4/cyfitter_cfg.c **** 			{0x92u, 0x08u},
 549:.\Generated_Source\PSoC4/cyfitter_cfg.c **** 			{0x98u, 0x84u},
 550:.\Generated_Source\PSoC4/cyfitter_cfg.c **** 			{0x99u, 0x30u},
 551:.\Generated_Source\PSoC4/cyfitter_cfg.c **** 			{0x9Au, 0x10u},
 552:.\Generated_Source\PSoC4/cyfitter_cfg.c **** 			{0x9Bu, 0xC9u},
 553:.\Generated_Source\PSoC4/cyfitter_cfg.c **** 			{0x9Du, 0x9Eu},
 554:.\Generated_Source\PSoC4/cyfitter_cfg.c **** 			{0x9Fu, 0x60u},
 555:.\Generated_Source\PSoC4/cyfitter_cfg.c **** 			{0xA1u, 0xCFu},
 556:.\Generated_Source\PSoC4/cyfitter_cfg.c **** 			{0xA3u, 0x30u},
 557:.\Generated_Source\PSoC4/cyfitter_cfg.c **** 			{0xA4u, 0x77u},
 558:.\Generated_Source\PSoC4/cyfitter_cfg.c **** 			{0xA9u, 0xFDu},
 559:.\Generated_Source\PSoC4/cyfitter_cfg.c **** 			{0xABu, 0x02u},
 560:.\Generated_Source\PSoC4/cyfitter_cfg.c **** 			{0xACu, 0x01u},
 561:.\Generated_Source\PSoC4/cyfitter_cfg.c **** 			{0xAEu, 0xF2u},
 562:.\Generated_Source\PSoC4/cyfitter_cfg.c **** 			{0xB0u, 0xF0u},
 563:.\Generated_Source\PSoC4/cyfitter_cfg.c **** 			{0xB1u, 0xFFu},
 564:.\Generated_Source\PSoC4/cyfitter_cfg.c **** 			{0xB4u, 0x0Fu},
 565:.\Generated_Source\PSoC4/cyfitter_cfg.c **** 			{0xBFu, 0x01u},
 566:.\Generated_Source\PSoC4/cyfitter_cfg.c **** 			{0xD8u, 0x04u},
 567:.\Generated_Source\PSoC4/cyfitter_cfg.c **** 			{0xD9u, 0x04u},
 568:.\Generated_Source\PSoC4/cyfitter_cfg.c **** 			{0xDFu, 0x01u},
 569:.\Generated_Source\PSoC4/cyfitter_cfg.c **** 			{0x00u, 0x04u},
 570:.\Generated_Source\PSoC4/cyfitter_cfg.c **** 			{0x01u, 0x02u},
 571:.\Generated_Source\PSoC4/cyfitter_cfg.c **** 			{0x02u, 0x02u},
 572:.\Generated_Source\PSoC4/cyfitter_cfg.c **** 			{0x03u, 0x08u},
 573:.\Generated_Source\PSoC4/cyfitter_cfg.c **** 			{0x05u, 0x14u},
 574:.\Generated_Source\PSoC4/cyfitter_cfg.c **** 			{0x07u, 0x41u},
 575:.\Generated_Source\PSoC4/cyfitter_cfg.c **** 			{0x08u, 0x10u},
 576:.\Generated_Source\PSoC4/cyfitter_cfg.c **** 			{0x09u, 0x02u},
 577:.\Generated_Source\PSoC4/cyfitter_cfg.c **** 			{0x0Cu, 0x50u},
 578:.\Generated_Source\PSoC4/cyfitter_cfg.c **** 			{0x0Eu, 0x20u},
 579:.\Generated_Source\PSoC4/cyfitter_cfg.c **** 			{0x11u, 0x44u},
 580:.\Generated_Source\PSoC4/cyfitter_cfg.c **** 			{0x15u, 0x50u},
 581:.\Generated_Source\PSoC4/cyfitter_cfg.c **** 			{0x16u, 0xA0u},
 582:.\Generated_Source\PSoC4/cyfitter_cfg.c **** 			{0x18u, 0x04u},
 583:.\Generated_Source\PSoC4/cyfitter_cfg.c **** 			{0x19u, 0x02u},
 584:.\Generated_Source\PSoC4/cyfitter_cfg.c **** 			{0x1Bu, 0x10u},
 585:.\Generated_Source\PSoC4/cyfitter_cfg.c **** 			{0x1Cu, 0x82u},
 586:.\Generated_Source\PSoC4/cyfitter_cfg.c **** 			{0x1Du, 0x90u},
 587:.\Generated_Source\PSoC4/cyfitter_cfg.c **** 			{0x1Eu, 0x20u},
 588:.\Generated_Source\PSoC4/cyfitter_cfg.c **** 			{0x1Fu, 0x09u},
 589:.\Generated_Source\PSoC4/cyfitter_cfg.c **** 			{0x21u, 0x02u},
 590:.\Generated_Source\PSoC4/cyfitter_cfg.c **** 			{0x27u, 0x40u},
 591:.\Generated_Source\PSoC4/cyfitter_cfg.c **** 			{0x29u, 0x02u},
ARM GAS  C:\Users\g\AppData\Local\Temp\cc0mLdPA.s 			page 18


 592:.\Generated_Source\PSoC4/cyfitter_cfg.c **** 			{0x2Bu, 0x08u},
 593:.\Generated_Source\PSoC4/cyfitter_cfg.c **** 			{0x2Cu, 0x40u},
 594:.\Generated_Source\PSoC4/cyfitter_cfg.c **** 			{0x2Du, 0x02u},
 595:.\Generated_Source\PSoC4/cyfitter_cfg.c **** 			{0x2Fu, 0x08u},
 596:.\Generated_Source\PSoC4/cyfitter_cfg.c **** 			{0x30u, 0x10u},
 597:.\Generated_Source\PSoC4/cyfitter_cfg.c **** 			{0x32u, 0x20u},
 598:.\Generated_Source\PSoC4/cyfitter_cfg.c **** 			{0x33u, 0x80u},
 599:.\Generated_Source\PSoC4/cyfitter_cfg.c **** 			{0x35u, 0x10u},
 600:.\Generated_Source\PSoC4/cyfitter_cfg.c **** 			{0x36u, 0x03u},
 601:.\Generated_Source\PSoC4/cyfitter_cfg.c **** 			{0x37u, 0x09u},
 602:.\Generated_Source\PSoC4/cyfitter_cfg.c **** 			{0x38u, 0x04u},
 603:.\Generated_Source\PSoC4/cyfitter_cfg.c **** 			{0x3Au, 0x20u},
 604:.\Generated_Source\PSoC4/cyfitter_cfg.c **** 			{0x3Bu, 0x22u},
 605:.\Generated_Source\PSoC4/cyfitter_cfg.c **** 			{0x3Cu, 0x88u},
 606:.\Generated_Source\PSoC4/cyfitter_cfg.c **** 			{0x3Du, 0x44u},
 607:.\Generated_Source\PSoC4/cyfitter_cfg.c **** 			{0x5Eu, 0x44u},
 608:.\Generated_Source\PSoC4/cyfitter_cfg.c **** 			{0x5Fu, 0x11u},
 609:.\Generated_Source\PSoC4/cyfitter_cfg.c **** 			{0x66u, 0x08u},
 610:.\Generated_Source\PSoC4/cyfitter_cfg.c **** 			{0x67u, 0x04u},
 611:.\Generated_Source\PSoC4/cyfitter_cfg.c **** 			{0x76u, 0x80u},
 612:.\Generated_Source\PSoC4/cyfitter_cfg.c **** 			{0x7Fu, 0x10u},
 613:.\Generated_Source\PSoC4/cyfitter_cfg.c **** 			{0x88u, 0x02u},
 614:.\Generated_Source\PSoC4/cyfitter_cfg.c **** 			{0x8Bu, 0x08u},
 615:.\Generated_Source\PSoC4/cyfitter_cfg.c **** 			{0x91u, 0x10u},
 616:.\Generated_Source\PSoC4/cyfitter_cfg.c **** 			{0x92u, 0x44u},
 617:.\Generated_Source\PSoC4/cyfitter_cfg.c **** 			{0x93u, 0x35u},
 618:.\Generated_Source\PSoC4/cyfitter_cfg.c **** 			{0x94u, 0x04u},
 619:.\Generated_Source\PSoC4/cyfitter_cfg.c **** 			{0x95u, 0x40u},
 620:.\Generated_Source\PSoC4/cyfitter_cfg.c **** 			{0x99u, 0x04u},
 621:.\Generated_Source\PSoC4/cyfitter_cfg.c **** 			{0x9Au, 0x08u},
 622:.\Generated_Source\PSoC4/cyfitter_cfg.c **** 			{0x9Bu, 0x08u},
 623:.\Generated_Source\PSoC4/cyfitter_cfg.c **** 			{0x9Cu, 0x42u},
 624:.\Generated_Source\PSoC4/cyfitter_cfg.c **** 			{0x9Du, 0x10u},
 625:.\Generated_Source\PSoC4/cyfitter_cfg.c **** 			{0x9Fu, 0x01u},
 626:.\Generated_Source\PSoC4/cyfitter_cfg.c **** 			{0xA0u, 0x04u},
 627:.\Generated_Source\PSoC4/cyfitter_cfg.c **** 			{0xA2u, 0x21u},
 628:.\Generated_Source\PSoC4/cyfitter_cfg.c **** 			{0xA3u, 0x80u},
 629:.\Generated_Source\PSoC4/cyfitter_cfg.c **** 			{0xA4u, 0x01u},
 630:.\Generated_Source\PSoC4/cyfitter_cfg.c **** 			{0xA5u, 0x80u},
 631:.\Generated_Source\PSoC4/cyfitter_cfg.c **** 			{0xA6u, 0x10u},
 632:.\Generated_Source\PSoC4/cyfitter_cfg.c **** 			{0xA7u, 0x10u},
 633:.\Generated_Source\PSoC4/cyfitter_cfg.c **** 			{0xAFu, 0x04u},
 634:.\Generated_Source\PSoC4/cyfitter_cfg.c **** 			{0xB4u, 0x10u},
 635:.\Generated_Source\PSoC4/cyfitter_cfg.c **** 			{0xB6u, 0x48u},
 636:.\Generated_Source\PSoC4/cyfitter_cfg.c **** 			{0xB7u, 0x40u},
 637:.\Generated_Source\PSoC4/cyfitter_cfg.c **** 			{0xC0u, 0xFFu},
 638:.\Generated_Source\PSoC4/cyfitter_cfg.c **** 			{0xC2u, 0xEAu},
 639:.\Generated_Source\PSoC4/cyfitter_cfg.c **** 			{0xC4u, 0xF5u},
 640:.\Generated_Source\PSoC4/cyfitter_cfg.c **** 			{0xCAu, 0xA5u},
 641:.\Generated_Source\PSoC4/cyfitter_cfg.c **** 			{0xCCu, 0xECu},
 642:.\Generated_Source\PSoC4/cyfitter_cfg.c **** 			{0xCEu, 0x57u},
 643:.\Generated_Source\PSoC4/cyfitter_cfg.c **** 			{0xD6u, 0xF0u},
 644:.\Generated_Source\PSoC4/cyfitter_cfg.c **** 			{0xD8u, 0x60u},
 645:.\Generated_Source\PSoC4/cyfitter_cfg.c **** 			{0xDEu, 0x40u},
 646:.\Generated_Source\PSoC4/cyfitter_cfg.c **** 			{0xE2u, 0x08u},
 647:.\Generated_Source\PSoC4/cyfitter_cfg.c **** 			{0xE6u, 0x01u},
 648:.\Generated_Source\PSoC4/cyfitter_cfg.c **** 			{0x00u, 0x02u},
ARM GAS  C:\Users\g\AppData\Local\Temp\cc0mLdPA.s 			page 19


 649:.\Generated_Source\PSoC4/cyfitter_cfg.c **** 			{0x05u, 0x02u},
 650:.\Generated_Source\PSoC4/cyfitter_cfg.c **** 			{0x6Bu, 0x80u},
 651:.\Generated_Source\PSoC4/cyfitter_cfg.c **** 			{0x6Eu, 0x80u},
 652:.\Generated_Source\PSoC4/cyfitter_cfg.c **** 			{0x84u, 0x01u},
 653:.\Generated_Source\PSoC4/cyfitter_cfg.c **** 			{0x86u, 0x40u},
 654:.\Generated_Source\PSoC4/cyfitter_cfg.c **** 			{0xC0u, 0x30u},
 655:.\Generated_Source\PSoC4/cyfitter_cfg.c **** 			{0xDAu, 0x80u},
 656:.\Generated_Source\PSoC4/cyfitter_cfg.c **** 			{0xDCu, 0x20u},
 657:.\Generated_Source\PSoC4/cyfitter_cfg.c **** 			{0xE4u, 0x10u},
 658:.\Generated_Source\PSoC4/cyfitter_cfg.c **** 			{0xE6u, 0x40u},
 659:.\Generated_Source\PSoC4/cyfitter_cfg.c **** 			{0x23u, 0x80u},
 660:.\Generated_Source\PSoC4/cyfitter_cfg.c **** 			{0x52u, 0x40u},
 661:.\Generated_Source\PSoC4/cyfitter_cfg.c **** 			{0x5Bu, 0x40u},
 662:.\Generated_Source\PSoC4/cyfitter_cfg.c **** 			{0x83u, 0x40u},
 663:.\Generated_Source\PSoC4/cyfitter_cfg.c **** 			{0x86u, 0x40u},
 664:.\Generated_Source\PSoC4/cyfitter_cfg.c **** 			{0x9Fu, 0x80u},
 665:.\Generated_Source\PSoC4/cyfitter_cfg.c **** 			{0xADu, 0x02u},
 666:.\Generated_Source\PSoC4/cyfitter_cfg.c **** 			{0xC8u, 0x40u},
 667:.\Generated_Source\PSoC4/cyfitter_cfg.c **** 			{0xD4u, 0xA0u},
 668:.\Generated_Source\PSoC4/cyfitter_cfg.c **** 			{0xE2u, 0x10u},
 669:.\Generated_Source\PSoC4/cyfitter_cfg.c **** 			{0xE6u, 0x80u},
 670:.\Generated_Source\PSoC4/cyfitter_cfg.c **** 			{0xECu, 0x10u},
 671:.\Generated_Source\PSoC4/cyfitter_cfg.c **** 			{0x5Eu, 0x08u},
 672:.\Generated_Source\PSoC4/cyfitter_cfg.c **** 			{0x61u, 0x60u},
 673:.\Generated_Source\PSoC4/cyfitter_cfg.c **** 			{0x65u, 0x04u},
 674:.\Generated_Source\PSoC4/cyfitter_cfg.c **** 			{0xD6u, 0x03u},
 675:.\Generated_Source\PSoC4/cyfitter_cfg.c **** 			{0xD8u, 0x03u},
 676:.\Generated_Source\PSoC4/cyfitter_cfg.c **** 			{0x19u, 0x04u},
 677:.\Generated_Source\PSoC4/cyfitter_cfg.c **** 			{0x1Du, 0x40u},
 678:.\Generated_Source\PSoC4/cyfitter_cfg.c **** 			{0x1Fu, 0x02u},
 679:.\Generated_Source\PSoC4/cyfitter_cfg.c **** 			{0x21u, 0x20u},
 680:.\Generated_Source\PSoC4/cyfitter_cfg.c **** 			{0x25u, 0x80u},
 681:.\Generated_Source\PSoC4/cyfitter_cfg.c **** 			{0x26u, 0x04u},
 682:.\Generated_Source\PSoC4/cyfitter_cfg.c **** 			{0x81u, 0x80u},
 683:.\Generated_Source\PSoC4/cyfitter_cfg.c **** 			{0x87u, 0x02u},
 684:.\Generated_Source\PSoC4/cyfitter_cfg.c **** 			{0x9Du, 0x44u},
 685:.\Generated_Source\PSoC4/cyfitter_cfg.c **** 			{0xA5u, 0x20u},
 686:.\Generated_Source\PSoC4/cyfitter_cfg.c **** 			{0xA6u, 0x04u},
 687:.\Generated_Source\PSoC4/cyfitter_cfg.c **** 			{0xC6u, 0x0Du},
 688:.\Generated_Source\PSoC4/cyfitter_cfg.c **** 			{0xC8u, 0x0Du},
 689:.\Generated_Source\PSoC4/cyfitter_cfg.c **** 			{0x01u, 0x01u},
 690:.\Generated_Source\PSoC4/cyfitter_cfg.c **** 			{0x10u, 0x01u},
 691:.\Generated_Source\PSoC4/cyfitter_cfg.c **** 		};
 692:.\Generated_Source\PSoC4/cyfitter_cfg.c **** 
 693:.\Generated_Source\PSoC4/cyfitter_cfg.c **** 
 694:.\Generated_Source\PSoC4/cyfitter_cfg.c **** 
 695:.\Generated_Source\PSoC4/cyfitter_cfg.c **** 		CYPACKED typedef struct {
 696:.\Generated_Source\PSoC4/cyfitter_cfg.c **** 			void CYFAR *address;
 697:.\Generated_Source\PSoC4/cyfitter_cfg.c **** 			uint16 size;
 698:.\Generated_Source\PSoC4/cyfitter_cfg.c **** 		} CYPACKED_ATTR cfg_memset_t;
 699:.\Generated_Source\PSoC4/cyfitter_cfg.c **** 
 700:.\Generated_Source\PSoC4/cyfitter_cfg.c **** 		static const cfg_memset_t CYCODE cfg_memset_list [] = {
 701:.\Generated_Source\PSoC4/cyfitter_cfg.c **** 			/* address, size */
 702:.\Generated_Source\PSoC4/cyfitter_cfg.c **** 			{(void CYFAR *)(CYDEV_UDB_P0_U0_BASE), 1024u},
 703:.\Generated_Source\PSoC4/cyfitter_cfg.c **** 			{(void CYFAR *)(CYDEV_UDB_DSI0_BASE), 1024u},
 704:.\Generated_Source\PSoC4/cyfitter_cfg.c **** 		};
 705:.\Generated_Source\PSoC4/cyfitter_cfg.c **** 
ARM GAS  C:\Users\g\AppData\Local\Temp\cc0mLdPA.s 			page 20


 706:.\Generated_Source\PSoC4/cyfitter_cfg.c **** 		uint8 CYDATA i;
 707:.\Generated_Source\PSoC4/cyfitter_cfg.c **** 
 708:.\Generated_Source\PSoC4/cyfitter_cfg.c **** 		/* Zero out critical memory blocks before beginning configuration */
 709:.\Generated_Source\PSoC4/cyfitter_cfg.c **** 		for (i = 0u; i < (sizeof(cfg_memset_list)/sizeof(cfg_memset_list[0])); i++)
 349              		.loc 1 709 0
 350 00ea 0024     		mov	r4, #0
 351 00ec 10E0     		b	.L19
 352              	.LVL24:
 353              	.L20:
 354              	.LBB4:
 710:.\Generated_Source\PSoC4/cyfitter_cfg.c **** 		{
 711:.\Generated_Source\PSoC4/cyfitter_cfg.c **** 			const cfg_memset_t CYCODE * CYDATA ms = &cfg_memset_list[i];
 712:.\Generated_Source\PSoC4/cyfitter_cfg.c **** 			CYMEMZERO(ms->address, (size_t)(uint32)(ms->size));
 355              		.loc 1 712 0 discriminator 3
 356 00ee 3F48     		ldr	r0, .L21+4
 357 00f0 6300     		lsl	r3, r4, #1
 358 00f2 1A19     		add	r2, r3, r4
 359 00f4 5200     		lsl	r2, r2, #1
 360 00f6 8218     		add	r2, r0, r2
 361 00f8 9188     		ldrh	r1, [r2, #4]
 362 00fa 1B19     		add	r3, r3, r4
 363 00fc 5B00     		lsl	r3, r3, #1
 364 00fe 1A5A     		ldrh	r2, [r3, r0]
 365 0100 C318     		add	r3, r0, r3
 366 0102 5888     		ldrh	r0, [r3, #2]
 367 0104 0004     		lsl	r0, r0, #16
 368 0106 1043     		orr	r0, r2
 369 0108 FFF7FEFF 		bl	CYMEMZERO
 370              	.LVL25:
 371              	.LBE4:
 709:.\Generated_Source\PSoC4/cyfitter_cfg.c **** 		{
 372              		.loc 1 709 0 discriminator 3
 373 010c 0134     		add	r4, r4, #1
 374              	.LVL26:
 375 010e E4B2     		uxtb	r4, r4
 376              	.LVL27:
 377              	.L19:
 709:.\Generated_Source\PSoC4/cyfitter_cfg.c **** 		{
 378              		.loc 1 709 0 is_stmt 0 discriminator 1
 379 0110 012C     		cmp	r4, #1
 380 0112 ECD9     		bls	.L20
 713:.\Generated_Source\PSoC4/cyfitter_cfg.c **** 		}
 714:.\Generated_Source\PSoC4/cyfitter_cfg.c **** 
 715:.\Generated_Source\PSoC4/cyfitter_cfg.c **** 		cfg_write_bytes32(cy_cfg_addr_table, cy_cfg_data_table);
 381              		.loc 1 715 0 is_stmt 1
 382 0114 3549     		ldr	r1, .L21+4
 383 0116 081C     		mov	r0, r1
 384 0118 0C30     		add	r0, r0, #12
 385 011a 3431     		add	r1, r1, #52
 386 011c FFF7FEFF 		bl	cfg_write_bytes32
 387              	.LVL28:
 716:.\Generated_Source\PSoC4/cyfitter_cfg.c **** 
 717:.\Generated_Source\PSoC4/cyfitter_cfg.c **** 		/* HSIOM Starting address: CYDEV_HSIOM_BASE */
 718:.\Generated_Source\PSoC4/cyfitter_cfg.c **** 		CY_SET_XTND_REG32((void CYFAR *)(CYREG_HSIOM_PORT_SEL1), 0x00000033u);
 388              		.loc 1 718 0
 389 0120 3322     		mov	r2, #51
 390 0122 334B     		ldr	r3, .L21+8
ARM GAS  C:\Users\g\AppData\Local\Temp\cc0mLdPA.s 			page 21


 391 0124 1A60     		str	r2, [r3]
 719:.\Generated_Source\PSoC4/cyfitter_cfg.c **** 		CY_SET_XTND_REG32((void CYFAR *)(CYREG_HSIOM_PORT_SEL2), 0x33330000u);
 392              		.loc 1 719 0
 393 0126 334A     		ldr	r2, .L21+12
 394 0128 334B     		ldr	r3, .L21+16
 395 012a 1A60     		str	r2, [r3]
 720:.\Generated_Source\PSoC4/cyfitter_cfg.c **** 		CY_SET_XTND_REG32((void CYFAR *)(CYREG_HSIOM_PORT_SEL3), 0x00000099u);
 396              		.loc 1 720 0
 397 012c 9922     		mov	r2, #153
 398 012e 334B     		ldr	r3, .L21+20
 399 0130 1A60     		str	r2, [r3]
 721:.\Generated_Source\PSoC4/cyfitter_cfg.c **** 
 722:.\Generated_Source\PSoC4/cyfitter_cfg.c **** 		/* UDB_PA_0 Starting address: CYDEV_UDB_PA0_BASE */
 723:.\Generated_Source\PSoC4/cyfitter_cfg.c **** 		CY_SET_XTND_REG32((void CYFAR *)(CYDEV_UDB_PA0_BASE), 0x00990000u);
 400              		.loc 1 723 0
 401 0132 9923     		mov	r3, #153
 402 0134 1B04     		lsl	r3, r3, #16
 403 0136 324A     		ldr	r2, .L21+24
 404 0138 1360     		str	r3, [r2]
 724:.\Generated_Source\PSoC4/cyfitter_cfg.c **** 
 725:.\Generated_Source\PSoC4/cyfitter_cfg.c **** 		/* UDB_PA_1 Starting address: CYDEV_UDB_PA1_BASE */
 726:.\Generated_Source\PSoC4/cyfitter_cfg.c **** 		CY_SET_XTND_REG32((void CYFAR *)(CYDEV_UDB_PA1_BASE), 0x00990000u);
 405              		.loc 1 726 0
 406 013a 324A     		ldr	r2, .L21+28
 407 013c 1360     		str	r3, [r2]
 727:.\Generated_Source\PSoC4/cyfitter_cfg.c **** 		CY_SET_XTND_REG32((void CYFAR *)(CYREG_UDB_PA1_CFG8), 0x00520000u);
 408              		.loc 1 727 0
 409 013e A421     		mov	r1, #164
 410 0140 C903     		lsl	r1, r1, #15
 411 0142 314A     		ldr	r2, .L21+32
 412 0144 1160     		str	r1, [r2]
 728:.\Generated_Source\PSoC4/cyfitter_cfg.c **** 
 729:.\Generated_Source\PSoC4/cyfitter_cfg.c **** 		/* UDB_PA_2 Starting address: CYDEV_UDB_PA2_BASE */
 730:.\Generated_Source\PSoC4/cyfitter_cfg.c **** 		CY_SET_XTND_REG32((void CYFAR *)(CYDEV_UDB_PA2_BASE), 0x00990000u);
 413              		.loc 1 730 0
 414 0146 314A     		ldr	r2, .L21+36
 415 0148 1360     		str	r3, [r2]
 731:.\Generated_Source\PSoC4/cyfitter_cfg.c **** 		CY_SET_XTND_REG32((void CYFAR *)(CYREG_UDB_PA2_CFG8), 0x1E000000u);
 416              		.loc 1 731 0
 417 014a F021     		mov	r1, #240
 418 014c 4905     		lsl	r1, r1, #21
 419 014e 304A     		ldr	r2, .L21+40
 420 0150 1160     		str	r1, [r2]
 732:.\Generated_Source\PSoC4/cyfitter_cfg.c **** 
 733:.\Generated_Source\PSoC4/cyfitter_cfg.c **** 		/* UDB_PA_3 Starting address: CYDEV_UDB_PA3_BASE */
 734:.\Generated_Source\PSoC4/cyfitter_cfg.c **** 		CY_SET_XTND_REG32((void CYFAR *)(CYDEV_UDB_PA3_BASE), 0x00990000u);
 421              		.loc 1 734 0
 422 0152 304A     		ldr	r2, .L21+44
 423 0154 1360     		str	r3, [r2]
 735:.\Generated_Source\PSoC4/cyfitter_cfg.c **** 
 736:.\Generated_Source\PSoC4/cyfitter_cfg.c **** 		/* INT_SELECT Starting address: CYDEV_CPUSS_INTR_SELECT */
 737:.\Generated_Source\PSoC4/cyfitter_cfg.c **** 		CY_SET_XTND_REG32((void CYFAR *)(CYREG_CPUSS_INTR_SELECT), 0x00000005u);
 424              		.loc 1 737 0
 425 0156 0522     		mov	r2, #5
 426 0158 2F4B     		ldr	r3, .L21+48
 427 015a 1A60     		str	r2, [r3]
 738:.\Generated_Source\PSoC4/cyfitter_cfg.c **** 
ARM GAS  C:\Users\g\AppData\Local\Temp\cc0mLdPA.s 			page 22


 739:.\Generated_Source\PSoC4/cyfitter_cfg.c **** 		/* INT_CONFIG Starting address: CYDEV_UDB_INT_CFG */
 740:.\Generated_Source\PSoC4/cyfitter_cfg.c **** 		CY_SET_XTND_REG32((void CYFAR *)(CYREG_UDB_INT_CFG), 0x00000002u);
 428              		.loc 1 740 0
 429 015c 033A     		sub	r2, r2, #3
 430 015e 2F4B     		ldr	r3, .L21+52
 431 0160 1A60     		str	r2, [r3]
 741:.\Generated_Source\PSoC4/cyfitter_cfg.c **** 
 742:.\Generated_Source\PSoC4/cyfitter_cfg.c **** 		/* Enable digital routing */
 743:.\Generated_Source\PSoC4/cyfitter_cfg.c **** 		CY_SET_XTND_REG8((void *)CYREG_UDB_UDBIF_BANK_CTL, CY_GET_XTND_REG8((void *)CYREG_UDB_UDBIF_BANK_
 432              		.loc 1 743 0
 433 0162 2F4B     		ldr	r3, .L21+56
 434 0164 1878     		ldrb	r0, [r3]
 435 0166 0221     		mov	r1, #2
 436 0168 0143     		orr	r1, r0
 437 016a 1970     		strb	r1, [r3]
 744:.\Generated_Source\PSoC4/cyfitter_cfg.c **** 
 745:.\Generated_Source\PSoC4/cyfitter_cfg.c **** 		/* Enable UDB array */
 746:.\Generated_Source\PSoC4/cyfitter_cfg.c **** 		CY_SET_XTND_REG8((void *)CYREG_UDB_UDBIF_WAIT_CFG, (uint8)((CY_GET_XTND_REG8((void *)CYREG_UDB_UD
 438              		.loc 1 746 0
 439 016c 2D4C     		ldr	r4, .L21+60
 440              	.LVL29:
 441 016e 2178     		ldrb	r1, [r4]
 442 0170 3C20     		mov	r0, #60
 443 0172 8143     		bic	r1, r0
 444 0174 2838     		sub	r0, r0, #40
 445 0176 0143     		orr	r1, r0
 446 0178 2170     		strb	r1, [r4]
 747:.\Generated_Source\PSoC4/cyfitter_cfg.c **** 		CY_SET_XTND_REG8((void *)CYREG_UDB_UDBIF_BANK_CTL, (uint8)(CY_GET_XTND_REG8((void *)CYREG_UDB_UDB
 447              		.loc 1 747 0
 448 017a 1878     		ldrb	r0, [r3]
 449 017c 1621     		mov	r1, #22
 450 017e 0143     		orr	r1, r0
 451 0180 1970     		strb	r1, [r3]
 452              	.LBE3:
 748:.\Generated_Source\PSoC4/cyfitter_cfg.c **** 	}
 749:.\Generated_Source\PSoC4/cyfitter_cfg.c **** 
 750:.\Generated_Source\PSoC4/cyfitter_cfg.c **** 
 751:.\Generated_Source\PSoC4/cyfitter_cfg.c **** 	/* Perform second pass device configuration. These items must be configured in specific order afte
 752:.\Generated_Source\PSoC4/cyfitter_cfg.c **** 	CY_SET_XTND_REG8((void CYFAR *)(CYREG_UDB_P1_U0_CFG27), 0x84u);
 453              		.loc 1 752 0
 454 0182 8421     		mov	r1, #132
 455 0184 284B     		ldr	r3, .L21+64
 456 0186 1970     		strb	r1, [r3]
 753:.\Generated_Source\PSoC4/cyfitter_cfg.c **** 	/* IOPINS0_0 Starting address: CYDEV_PRT0_BASE */
 754:.\Generated_Source\PSoC4/cyfitter_cfg.c **** 	CY_SET_XTND_REG32((void CYFAR *)(CYDEV_PRT0_BASE), 0x00000083u);
 457              		.loc 1 754 0
 458 0188 0139     		sub	r1, r1, #1
 459 018a 284B     		ldr	r3, .L21+68
 460 018c 1960     		str	r1, [r3]
 755:.\Generated_Source\PSoC4/cyfitter_cfg.c **** 	CY_SET_XTND_REG32((void CYFAR *)(CYREG_PRT0_PC), 0x00440252u);
 461              		.loc 1 755 0
 462 018e 2849     		ldr	r1, .L21+72
 463 0190 284B     		ldr	r3, .L21+76
 464 0192 1960     		str	r1, [r3]
 756:.\Generated_Source\PSoC4/cyfitter_cfg.c **** 
 757:.\Generated_Source\PSoC4/cyfitter_cfg.c **** 	/* IOPINS0_1 Starting address: CYDEV_PRT1_BASE */
 758:.\Generated_Source\PSoC4/cyfitter_cfg.c **** 	CY_SET_XTND_REG32((void CYFAR *)(CYDEV_PRT1_BASE), 0x00000003u);
ARM GAS  C:\Users\g\AppData\Local\Temp\cc0mLdPA.s 			page 23


 465              		.loc 1 758 0
 466 0194 0321     		mov	r1, #3
 467 0196 284B     		ldr	r3, .L21+80
 468 0198 1960     		str	r1, [r3]
 759:.\Generated_Source\PSoC4/cyfitter_cfg.c **** 	CY_SET_XTND_REG32((void CYFAR *)(CYREG_PRT1_PC), 0x000001B6u);
 469              		.loc 1 759 0
 470 019a B431     		add	r1, r1, #180
 471 019c FF31     		add	r1, r1, #255
 472 019e 274B     		ldr	r3, .L21+84
 473 01a0 1960     		str	r1, [r3]
 760:.\Generated_Source\PSoC4/cyfitter_cfg.c **** 	CY_SET_XTND_REG32((void CYFAR *)(CYREG_PRT1_PC2), 0x00000080u);
 474              		.loc 1 760 0
 475 01a2 3739     		sub	r1, r1, #55
 476 01a4 FF39     		sub	r1, r1, #255
 477 01a6 264B     		ldr	r3, .L21+88
 478 01a8 1960     		str	r1, [r3]
 761:.\Generated_Source\PSoC4/cyfitter_cfg.c **** 
 762:.\Generated_Source\PSoC4/cyfitter_cfg.c **** 	/* IOPINS0_2 Starting address: CYDEV_PRT2_BASE */
 763:.\Generated_Source\PSoC4/cyfitter_cfg.c **** 	CY_SET_XTND_REG32((void CYFAR *)(CYDEV_PRT2_BASE), 0x000000FCu);
 479              		.loc 1 763 0
 480 01aa 7C31     		add	r1, r1, #124
 481 01ac 254B     		ldr	r3, .L21+92
 482 01ae 1960     		str	r1, [r3]
 764:.\Generated_Source\PSoC4/cyfitter_cfg.c **** 	CY_SET_XTND_REG32((void CYFAR *)(CYREG_PRT2_PC), 0x00DB6000u);
 483              		.loc 1 764 0
 484 01b0 2549     		ldr	r1, .L21+96
 485 01b2 264B     		ldr	r3, .L21+100
 486 01b4 1960     		str	r1, [r3]
 765:.\Generated_Source\PSoC4/cyfitter_cfg.c **** 	CY_SET_XTND_REG32((void CYFAR *)(CYREG_PRT2_PC2), 0x0000000Cu);
 487              		.loc 1 765 0
 488 01b6 0C21     		mov	r1, #12
 489 01b8 254B     		ldr	r3, .L21+104
 490 01ba 1960     		str	r1, [r3]
 766:.\Generated_Source\PSoC4/cyfitter_cfg.c **** 
 767:.\Generated_Source\PSoC4/cyfitter_cfg.c **** 	/* IOPINS0_3 Starting address: CYDEV_PRT3_BASE */
 768:.\Generated_Source\PSoC4/cyfitter_cfg.c **** 	CY_SET_XTND_REG32((void CYFAR *)(CYDEV_PRT3_BASE), 0x00000002u);
 491              		.loc 1 768 0
 492 01bc 254B     		ldr	r3, .L21+108
 493 01be 1A60     		str	r2, [r3]
 769:.\Generated_Source\PSoC4/cyfitter_cfg.c **** 	CY_SET_XTND_REG32((void CYFAR *)(CYREG_PRT3_PC), 0x00000DB1u);
 494              		.loc 1 769 0
 495 01c0 2549     		ldr	r1, .L21+112
 496 01c2 264B     		ldr	r3, .L21+116
 497 01c4 1960     		str	r1, [r3]
 770:.\Generated_Source\PSoC4/cyfitter_cfg.c **** 	CY_SET_XTND_REG32((void CYFAR *)(CYREG_PRT3_PC2), 0x00000002u);
 498              		.loc 1 770 0
 499 01c6 264B     		ldr	r3, .L21+120
 500 01c8 1A60     		str	r2, [r3]
 771:.\Generated_Source\PSoC4/cyfitter_cfg.c **** 
 772:.\Generated_Source\PSoC4/cyfitter_cfg.c **** 	/* IOPINS0_4 Starting address: CYDEV_PRT4_BASE */
 773:.\Generated_Source\PSoC4/cyfitter_cfg.c **** 	CY_SET_XTND_REG32((void CYFAR *)(CYDEV_PRT4_BASE), 0x0000000Eu);
 501              		.loc 1 773 0
 502 01ca 0C32     		add	r2, r2, #12
 503 01cc 254B     		ldr	r3, .L21+124
 504 01ce 1A60     		str	r2, [r3]
 774:.\Generated_Source\PSoC4/cyfitter_cfg.c **** 	CY_SET_XTND_REG32((void CYFAR *)(CYREG_PRT4_PC), 0x00000496u);
 505              		.loc 1 774 0
ARM GAS  C:\Users\g\AppData\Local\Temp\cc0mLdPA.s 			page 24


 506 01d0 254A     		ldr	r2, .L21+128
 507 01d2 264B     		ldr	r3, .L21+132
 508 01d4 1A60     		str	r2, [r3]
 775:.\Generated_Source\PSoC4/cyfitter_cfg.c **** 	CY_SET_XTND_REG32((void CYFAR *)(CYREG_PRT4_INTCFG), 0x00000010u);
 509              		.loc 1 775 0
 510 01d6 1022     		mov	r2, #16
 511 01d8 254B     		ldr	r3, .L21+136
 512 01da 1A60     		str	r2, [r3]
 776:.\Generated_Source\PSoC4/cyfitter_cfg.c **** 
 777:.\Generated_Source\PSoC4/cyfitter_cfg.c **** 
 778:.\Generated_Source\PSoC4/cyfitter_cfg.c **** 	/* Setup clocks based on selections from Clock DWR */
 779:.\Generated_Source\PSoC4/cyfitter_cfg.c **** 	ClockSetup();
 513              		.loc 1 779 0
 514 01dc FFF710FF 		bl	ClockSetup
 515              	.LVL30:
 780:.\Generated_Source\PSoC4/cyfitter_cfg.c **** 
 781:.\Generated_Source\PSoC4/cyfitter_cfg.c **** 	/* Perform basic analog initialization to defaults */
 782:.\Generated_Source\PSoC4/cyfitter_cfg.c **** 	AnalogSetDefault();
 516              		.loc 1 782 0
 517 01e0 FFF7FEFF 		bl	AnalogSetDefault
 518              	.LVL31:
 783:.\Generated_Source\PSoC4/cyfitter_cfg.c **** 
 784:.\Generated_Source\PSoC4/cyfitter_cfg.c **** }
 519              		.loc 1 784 0
 520              		@ sp needed
 521 01e4 10BD     		pop	{r4, pc}
 522              	.L22:
 523 01e6 C046     		.align	2
 524              	.L21:
 525 01e8 1C700F40 		.word	1074753564
 526 01ec 00000000 		.word	.LANCHOR0
 527 01f0 04000140 		.word	1073807364
 528 01f4 00003333 		.word	858980352
 529 01f8 08000140 		.word	1073807368
 530 01fc 0C000140 		.word	1073807372
 531 0200 00500F40 		.word	1074745344
 532 0204 10500F40 		.word	1074745360
 533 0208 18500F40 		.word	1074745368
 534 020c 20500F40 		.word	1074745376
 535 0210 28500F40 		.word	1074745384
 536 0214 30500F40 		.word	1074745392
 537 0218 20000040 		.word	1073741856
 538 021c 00800F40 		.word	1074757632
 539 0220 00700F40 		.word	1074753536
 540 0224 01700F40 		.word	1074753537
 541 0228 5B320F40 		.word	1074737755
 542 022c 00000440 		.word	1074003968
 543 0230 52024400 		.word	4457042
 544 0234 08000440 		.word	1074003976
 545 0238 00010440 		.word	1074004224
 546 023c 08010440 		.word	1074004232
 547 0240 18010440 		.word	1074004248
 548 0244 00020440 		.word	1074004480
 549 0248 0060DB00 		.word	14376960
 550 024c 08020440 		.word	1074004488
 551 0250 18020440 		.word	1074004504
 552 0254 00030440 		.word	1074004736
ARM GAS  C:\Users\g\AppData\Local\Temp\cc0mLdPA.s 			page 25


 553 0258 B10D0000 		.word	3505
 554 025c 08030440 		.word	1074004744
 555 0260 18030440 		.word	1074004760
 556 0264 00040440 		.word	1074004992
 557 0268 96040000 		.word	1174
 558 026c 08040440 		.word	1074005000
 559 0270 0C040440 		.word	1074005004
 560              		.cfi_endproc
 561              	.LFE7:
 562              		.size	cyfitter_cfg, .-cyfitter_cfg
 563              		.section	.rodata
 564              		.align	2
 565              		.set	.LANCHOR0,. + 0
 566              		.type	cfg_memset_list.4752, %object
 567              		.size	cfg_memset_list.4752, 12
 568              	cfg_memset_list.4752:
 569 0000 00300F40 		.word	1074737152
 570 0004 0004     		.short	1024
 571 0006 00400F40 		.4byte	1074741248
 572 000a 0004     		.short	1024
 573              		.type	cy_cfg_addr_table.4746, %object
 574              		.size	cy_cfg_addr_table.4746, 40
 575              	cy_cfg_addr_table.4746:
 576 000c 02000F40 		.word	1074724866
 577 0010 60300F40 		.word	1074737248
 578 0014 3C310F40 		.word	1074737468
 579 0018 48320F40 		.word	1074737736
 580 001c 4F330F40 		.word	1074737999
 581 0020 0B400F40 		.word	1074741259
 582 0024 0C410F40 		.word	1074741516
 583 0028 05420F40 		.word	1074741765
 584 002c 0D430F40 		.word	1074742029
 585 0030 02600F40 		.word	1074749442
 586              		.type	cy_cfg_data_table.4747, %object
 587              		.size	cy_cfg_data_table.4747, 704
 588              	cy_cfg_data_table.4747:
 589 0034 80       		.byte	-128
 590 0035 0F       		.byte	15
 591 0036 82       		.byte	-126
 592 0037 6F       		.byte	111
 593 0038 00       		.byte	0
 594 0039 08       		.byte	8
 595 003a 05       		.byte	5
 596 003b 08       		.byte	8
 597 003c 07       		.byte	7
 598 003d 04       		.byte	4
 599 003e 11       		.byte	17
 600 003f 02       		.byte	2
 601 0040 18       		.byte	24
 602 0041 01       		.byte	1
 603 0042 1B       		.byte	27
 604 0043 03       		.byte	3
 605 0044 1D       		.byte	29
 606 0045 0C       		.byte	12
 607 0046 24       		.byte	36
 608 0047 03       		.byte	3
 609 0048 2B       		.byte	43
ARM GAS  C:\Users\g\AppData\Local\Temp\cc0mLdPA.s 			page 26


 610 0049 0C       		.byte	12
 611 004a 2C       		.byte	44
 612 004b 03       		.byte	3
 613 004c 2E       		.byte	46
 614 004d 0C       		.byte	12
 615 004e 30       		.byte	48
 616 004f 04       		.byte	4
 617 0050 31       		.byte	49
 618 0051 01       		.byte	1
 619 0052 32       		.byte	50
 620 0053 02       		.byte	2
 621 0054 33       		.byte	51
 622 0055 04       		.byte	4
 623 0056 34       		.byte	52
 624 0057 08       		.byte	8
 625 0058 35       		.byte	53
 626 0059 08       		.byte	8
 627 005a 36       		.byte	54
 628 005b 01       		.byte	1
 629 005c 37       		.byte	55
 630 005d 02       		.byte	2
 631 005e 38       		.byte	56
 632 005f 88       		.byte	-120
 633 0060 3E       		.byte	62
 634 0061 50       		.byte	80
 635 0062 3F       		.byte	63
 636 0063 54       		.byte	84
 637 0064 40       		.byte	64
 638 0065 51       		.byte	81
 639 0066 41       		.byte	65
 640 0067 02       		.byte	2
 641 0068 49       		.byte	73
 642 0069 FF       		.byte	-1
 643 006a 4A       		.byte	74
 644 006b FF       		.byte	-1
 645 006c 4B       		.byte	75
 646 006d FF       		.byte	-1
 647 006e 4D       		.byte	77
 648 006f A0       		.byte	-96
 649 0070 4F       		.byte	79
 650 0071 01       		.byte	1
 651 0072 50       		.byte	80
 652 0073 18       		.byte	24
 653 0074 54       		.byte	84
 654 0075 0F       		.byte	15
 655 0076 56       		.byte	86
 656 0077 04       		.byte	4
 657 0078 58       		.byte	88
 658 0079 04       		.byte	4
 659 007a 59       		.byte	89
 660 007b 04       		.byte	4
 661 007c 5A       		.byte	90
 662 007d 04       		.byte	4
 663 007e 5B       		.byte	91
 664 007f 04       		.byte	4
 665 0080 5F       		.byte	95
 666 0081 01       		.byte	1
ARM GAS  C:\Users\g\AppData\Local\Temp\cc0mLdPA.s 			page 27


 667 0082 60       		.byte	96
 668 0083 40       		.byte	64
 669 0084 62       		.byte	98
 670 0085 80       		.byte	-128
 671 0086 64       		.byte	100
 672 0087 40       		.byte	64
 673 0088 65       		.byte	101
 674 0089 40       		.byte	64
 675 008a 66       		.byte	102
 676 008b 80       		.byte	-128
 677 008c 68       		.byte	104
 678 008d 40       		.byte	64
 679 008e 6A       		.byte	106
 680 008f 80       		.byte	-128
 681 0090 6C       		.byte	108
 682 0091 40       		.byte	64
 683 0092 6D       		.byte	109
 684 0093 20       		.byte	32
 685 0094 6E       		.byte	110
 686 0095 80       		.byte	-128
 687 0096 83       		.byte	-125
 688 0097 03       		.byte	3
 689 0098 8A       		.byte	-118
 690 0099 80       		.byte	-128
 691 009a 94       		.byte	-108
 692 009b 5B       		.byte	91
 693 009c 96       		.byte	-106
 694 009d 04       		.byte	4
 695 009e 98       		.byte	-104
 696 009f 37       		.byte	55
 697 00a0 9C       		.byte	-100
 698 00a1 6C       		.byte	108
 699 00a2 9D       		.byte	-99
 700 00a3 01       		.byte	1
 701 00a4 9E       		.byte	-98
 702 00a5 01       		.byte	1
 703 00a6 A0       		.byte	-96
 704 00a7 6C       		.byte	108
 705 00a8 A2       		.byte	-94
 706 00a9 02       		.byte	2
 707 00aa A6       		.byte	-90
 708 00ab 0F       		.byte	15
 709 00ac AB       		.byte	-85
 710 00ad 04       		.byte	4
 711 00ae AC       		.byte	-84
 712 00af 08       		.byte	8
 713 00b0 AE       		.byte	-82
 714 00b1 01       		.byte	1
 715 00b2 B2       		.byte	-78
 716 00b3 80       		.byte	-128
 717 00b4 B3       		.byte	-77
 718 00b5 01       		.byte	1
 719 00b6 B4       		.byte	-76
 720 00b7 70       		.byte	112
 721 00b8 B5       		.byte	-75
 722 00b9 04       		.byte	4
 723 00ba B6       		.byte	-74
ARM GAS  C:\Users\g\AppData\Local\Temp\cc0mLdPA.s 			page 28


 724 00bb 0F       		.byte	15
 725 00bc B7       		.byte	-73
 726 00bd 02       		.byte	2
 727 00be B8       		.byte	-72
 728 00bf 20       		.byte	32
 729 00c0 BF       		.byte	-65
 730 00c1 04       		.byte	4
 731 00c2 C0       		.byte	-64
 732 00c3 15       		.byte	21
 733 00c4 C1       		.byte	-63
 734 00c5 06       		.byte	6
 735 00c6 C5       		.byte	-59
 736 00c7 0C       		.byte	12
 737 00c8 C6       		.byte	-58
 738 00c9 23       		.byte	35
 739 00ca C7       		.byte	-57
 740 00cb 4E       		.byte	78
 741 00cc C8       		.byte	-56
 742 00cd 3D       		.byte	61
 743 00ce C9       		.byte	-55
 744 00cf FF       		.byte	-1
 745 00d0 CA       		.byte	-54
 746 00d1 FF       		.byte	-1
 747 00d2 CB       		.byte	-53
 748 00d3 FF       		.byte	-1
 749 00d4 CD       		.byte	-51
 750 00d5 AF       		.byte	-81
 751 00d6 CE       		.byte	-50
 752 00d7 07       		.byte	7
 753 00d8 CF       		.byte	-49
 754 00d9 01       		.byte	1
 755 00da D0       		.byte	-48
 756 00db 18       		.byte	24
 757 00dc D8       		.byte	-40
 758 00dd 04       		.byte	4
 759 00de D9       		.byte	-39
 760 00df 04       		.byte	4
 761 00e0 DA       		.byte	-38
 762 00e1 04       		.byte	4
 763 00e2 DF       		.byte	-33
 764 00e3 01       		.byte	1
 765 00e4 E0       		.byte	-32
 766 00e5 40       		.byte	64
 767 00e6 E2       		.byte	-30
 768 00e7 80       		.byte	-128
 769 00e8 E4       		.byte	-28
 770 00e9 40       		.byte	64
 771 00ea E5       		.byte	-27
 772 00eb 40       		.byte	64
 773 00ec E6       		.byte	-26
 774 00ed 80       		.byte	-128
 775 00ee E8       		.byte	-24
 776 00ef 40       		.byte	64
 777 00f0 EA       		.byte	-22
 778 00f1 80       		.byte	-128
 779 00f2 EC       		.byte	-20
 780 00f3 40       		.byte	64
ARM GAS  C:\Users\g\AppData\Local\Temp\cc0mLdPA.s 			page 29


 781 00f4 ED       		.byte	-19
 782 00f5 20       		.byte	32
 783 00f6 EE       		.byte	-18
 784 00f7 80       		.byte	-128
 785 00f8 01       		.byte	1
 786 00f9 02       		.byte	2
 787 00fa 05       		.byte	5
 788 00fb 10       		.byte	16
 789 00fc 09       		.byte	9
 790 00fd 20       		.byte	32
 791 00fe 0A       		.byte	10
 792 00ff 08       		.byte	8
 793 0100 0C       		.byte	12
 794 0101 40       		.byte	64
 795 0102 0D       		.byte	13
 796 0103 20       		.byte	32
 797 0104 0E       		.byte	14
 798 0105 20       		.byte	32
 799 0106 10       		.byte	16
 800 0107 20       		.byte	32
 801 0108 11       		.byte	17
 802 0109 80       		.byte	-128
 803 010a 15       		.byte	21
 804 010b 40       		.byte	64
 805 010c 17       		.byte	23
 806 010d 09       		.byte	9
 807 010e 18       		.byte	24
 808 010f 01       		.byte	1
 809 0110 19       		.byte	25
 810 0111 02       		.byte	2
 811 0112 1A       		.byte	26
 812 0113 06       		.byte	6
 813 0114 1B       		.byte	27
 814 0115 04       		.byte	4
 815 0116 1C       		.byte	28
 816 0117 08       		.byte	8
 817 0118 1D       		.byte	29
 818 0119 24       		.byte	36
 819 011a 1E       		.byte	30
 820 011b 02       		.byte	2
 821 011c 1F       		.byte	31
 822 011d 90       		.byte	-112
 823 011e 20       		.byte	32
 824 011f 10       		.byte	16
 825 0120 21       		.byte	33
 826 0121 02       		.byte	2
 827 0122 22       		.byte	34
 828 0123 10       		.byte	16
 829 0124 23       		.byte	35
 830 0125 01       		.byte	1
 831 0126 26       		.byte	38
 832 0127 A8       		.byte	-88
 833 0128 27       		.byte	39
 834 0129 08       		.byte	8
 835 012a 2B       		.byte	43
 836 012b 04       		.byte	4
 837 012c 2F       		.byte	47
ARM GAS  C:\Users\g\AppData\Local\Temp\cc0mLdPA.s 			page 30


 838 012d 04       		.byte	4
 839 012e 30       		.byte	48
 840 012f 20       		.byte	32
 841 0130 31       		.byte	49
 842 0131 02       		.byte	2
 843 0132 32       		.byte	50
 844 0133 80       		.byte	-128
 845 0134 36       		.byte	54
 846 0135 80       		.byte	-128
 847 0136 38       		.byte	56
 848 0137 04       		.byte	4
 849 0138 3A       		.byte	58
 850 0139 20       		.byte	32
 851 013a 3B       		.byte	59
 852 013b 10       		.byte	16
 853 013c 3F       		.byte	63
 854 013d 02       		.byte	2
 855 013e 40       		.byte	64
 856 013f 05       		.byte	5
 857 0140 45       		.byte	69
 858 0141 80       		.byte	-128
 859 0142 48       		.byte	72
 860 0143 01       		.byte	1
 861 0144 4E       		.byte	78
 862 0145 01       		.byte	1
 863 0146 4F       		.byte	79
 864 0147 24       		.byte	36
 865 0148 54       		.byte	84
 866 0149 20       		.byte	32
 867 014a 55       		.byte	85
 868 014b 40       		.byte	64
 869 014c 56       		.byte	86
 870 014d 28       		.byte	40
 871 014e 57       		.byte	87
 872 014f 01       		.byte	1
 873 0150 58       		.byte	88
 874 0151 02       		.byte	2
 875 0152 5A       		.byte	90
 876 0153 28       		.byte	40
 877 0154 5B       		.byte	91
 878 0155 40       		.byte	64
 879 0156 63       		.byte	99
 880 0157 40       		.byte	64
 881 0158 85       		.byte	-123
 882 0159 10       		.byte	16
 883 015a 87       		.byte	-121
 884 015b 40       		.byte	64
 885 015c C0       		.byte	-64
 886 015d 48       		.byte	72
 887 015e C2       		.byte	-62
 888 015f E2       		.byte	-30
 889 0160 C4       		.byte	-60
 890 0161 B5       		.byte	-75
 891 0162 CA       		.byte	-54
 892 0163 24       		.byte	36
 893 0164 CC       		.byte	-52
 894 0165 1D       		.byte	29
ARM GAS  C:\Users\g\AppData\Local\Temp\cc0mLdPA.s 			page 31


 895 0166 CE       		.byte	-50
 896 0167 82       		.byte	-126
 897 0168 D0       		.byte	-48
 898 0169 1C       		.byte	28
 899 016a D2       		.byte	-46
 900 016b 38       		.byte	56
 901 016c D6       		.byte	-42
 902 016d 0F       		.byte	15
 903 016e D8       		.byte	-40
 904 016f 01       		.byte	1
 905 0170 02       		.byte	2
 906 0171 08       		.byte	8
 907 0172 04       		.byte	4
 908 0173 01       		.byte	1
 909 0174 05       		.byte	5
 910 0175 7F       		.byte	127
 911 0176 0A       		.byte	10
 912 0177 01       		.byte	1
 913 0178 0C       		.byte	12
 914 0179 A4       		.byte	-92
 915 017a 0D       		.byte	13
 916 017b 0E       		.byte	14
 917 017c 0E       		.byte	14
 918 017d 50       		.byte	80
 919 017e 0F       		.byte	15
 920 017f F0       		.byte	-16
 921 0180 11       		.byte	17
 922 0181 C5       		.byte	-59
 923 0182 13       		.byte	19
 924 0183 3A       		.byte	58
 925 0184 14       		.byte	20
 926 0185 F4       		.byte	-12
 927 0186 15       		.byte	21
 928 0187 96       		.byte	-106
 929 0188 17       		.byte	23
 930 0189 68       		.byte	104
 931 018a 18       		.byte	24
 932 018b 50       		.byte	80
 933 018c 1A       		.byte	26
 934 018d A4       		.byte	-92
 935 018e 1B       		.byte	27
 936 018f 01       		.byte	1
 937 0190 1C       		.byte	28
 938 0191 C4       		.byte	-60
 939 0192 1E       		.byte	30
 940 0193 30       		.byte	48
 941 0194 21       		.byte	33
 942 0195 A3       		.byte	-93
 943 0196 22       		.byte	34
 944 0197 01       		.byte	1
 945 0198 23       		.byte	35
 946 0199 5C       		.byte	92
 947 019a 24       		.byte	36
 948 019b 70       		.byte	112
 949 019c 29       		.byte	41
 950 019d FE       		.byte	-2
 951 019e 2A       		.byte	42
ARM GAS  C:\Users\g\AppData\Local\Temp\cc0mLdPA.s 			page 32


 952 019f 02       		.byte	2
 953 01a0 2B       		.byte	43
 954 01a1 01       		.byte	1
 955 01a2 2C       		.byte	44
 956 01a3 34       		.byte	52
 957 01a4 2E       		.byte	46
 958 01a5 C0       		.byte	-64
 959 01a6 30       		.byte	48
 960 01a7 02       		.byte	2
 961 01a8 31       		.byte	49
 962 01a9 FF       		.byte	-1
 963 01aa 32       		.byte	50
 964 01ab F0       		.byte	-16
 965 01ac 34       		.byte	52
 966 01ad 0C       		.byte	12
 967 01ae 36       		.byte	54
 968 01af 01       		.byte	1
 969 01b0 3E       		.byte	62
 970 01b1 40       		.byte	64
 971 01b2 3F       		.byte	63
 972 01b3 01       		.byte	1
 973 01b4 52       		.byte	82
 974 01b5 80       		.byte	-128
 975 01b6 54       		.byte	84
 976 01b7 0F       		.byte	15
 977 01b8 58       		.byte	88
 978 01b9 04       		.byte	4
 979 01ba 59       		.byte	89
 980 01bb 04       		.byte	4
 981 01bc 5B       		.byte	91
 982 01bd 04       		.byte	4
 983 01be 5F       		.byte	95
 984 01bf 05       		.byte	5
 985 01c0 80       		.byte	-128
 986 01c1 C0       		.byte	-64
 987 01c2 81       		.byte	-127
 988 01c3 94       		.byte	-108
 989 01c4 82       		.byte	-126
 990 01c5 24       		.byte	36
 991 01c6 83       		.byte	-125
 992 01c7 60       		.byte	96
 993 01c8 86       		.byte	-122
 994 01c9 07       		.byte	7
 995 01ca 87       		.byte	-121
 996 01cb 0F       		.byte	15
 997 01cc 88       		.byte	-120
 998 01cd B7       		.byte	-73
 999 01ce 89       		.byte	-119
 1000 01cf 73       		.byte	115
 1001 01d0 8A       		.byte	-118
 1002 01d1 40       		.byte	64
 1003 01d2 8C       		.byte	-116
 1004 01d3 C1       		.byte	-63
 1005 01d4 8E       		.byte	-114
 1006 01d5 12       		.byte	18
 1007 01d6 92       		.byte	-110
 1008 01d7 08       		.byte	8
ARM GAS  C:\Users\g\AppData\Local\Temp\cc0mLdPA.s 			page 33


 1009 01d8 98       		.byte	-104
 1010 01d9 84       		.byte	-124
 1011 01da 99       		.byte	-103
 1012 01db 30       		.byte	48
 1013 01dc 9A       		.byte	-102
 1014 01dd 10       		.byte	16
 1015 01de 9B       		.byte	-101
 1016 01df C9       		.byte	-55
 1017 01e0 9D       		.byte	-99
 1018 01e1 9E       		.byte	-98
 1019 01e2 9F       		.byte	-97
 1020 01e3 60       		.byte	96
 1021 01e4 A1       		.byte	-95
 1022 01e5 CF       		.byte	-49
 1023 01e6 A3       		.byte	-93
 1024 01e7 30       		.byte	48
 1025 01e8 A4       		.byte	-92
 1026 01e9 77       		.byte	119
 1027 01ea A9       		.byte	-87
 1028 01eb FD       		.byte	-3
 1029 01ec AB       		.byte	-85
 1030 01ed 02       		.byte	2
 1031 01ee AC       		.byte	-84
 1032 01ef 01       		.byte	1
 1033 01f0 AE       		.byte	-82
 1034 01f1 F2       		.byte	-14
 1035 01f2 B0       		.byte	-80
 1036 01f3 F0       		.byte	-16
 1037 01f4 B1       		.byte	-79
 1038 01f5 FF       		.byte	-1
 1039 01f6 B4       		.byte	-76
 1040 01f7 0F       		.byte	15
 1041 01f8 BF       		.byte	-65
 1042 01f9 01       		.byte	1
 1043 01fa D8       		.byte	-40
 1044 01fb 04       		.byte	4
 1045 01fc D9       		.byte	-39
 1046 01fd 04       		.byte	4
 1047 01fe DF       		.byte	-33
 1048 01ff 01       		.byte	1
 1049 0200 00       		.byte	0
 1050 0201 04       		.byte	4
 1051 0202 01       		.byte	1
 1052 0203 02       		.byte	2
 1053 0204 02       		.byte	2
 1054 0205 02       		.byte	2
 1055 0206 03       		.byte	3
 1056 0207 08       		.byte	8
 1057 0208 05       		.byte	5
 1058 0209 14       		.byte	20
 1059 020a 07       		.byte	7
 1060 020b 41       		.byte	65
 1061 020c 08       		.byte	8
 1062 020d 10       		.byte	16
 1063 020e 09       		.byte	9
 1064 020f 02       		.byte	2
 1065 0210 0C       		.byte	12
ARM GAS  C:\Users\g\AppData\Local\Temp\cc0mLdPA.s 			page 34


 1066 0211 50       		.byte	80
 1067 0212 0E       		.byte	14
 1068 0213 20       		.byte	32
 1069 0214 11       		.byte	17
 1070 0215 44       		.byte	68
 1071 0216 15       		.byte	21
 1072 0217 50       		.byte	80
 1073 0218 16       		.byte	22
 1074 0219 A0       		.byte	-96
 1075 021a 18       		.byte	24
 1076 021b 04       		.byte	4
 1077 021c 19       		.byte	25
 1078 021d 02       		.byte	2
 1079 021e 1B       		.byte	27
 1080 021f 10       		.byte	16
 1081 0220 1C       		.byte	28
 1082 0221 82       		.byte	-126
 1083 0222 1D       		.byte	29
 1084 0223 90       		.byte	-112
 1085 0224 1E       		.byte	30
 1086 0225 20       		.byte	32
 1087 0226 1F       		.byte	31
 1088 0227 09       		.byte	9
 1089 0228 21       		.byte	33
 1090 0229 02       		.byte	2
 1091 022a 27       		.byte	39
 1092 022b 40       		.byte	64
 1093 022c 29       		.byte	41
 1094 022d 02       		.byte	2
 1095 022e 2B       		.byte	43
 1096 022f 08       		.byte	8
 1097 0230 2C       		.byte	44
 1098 0231 40       		.byte	64
 1099 0232 2D       		.byte	45
 1100 0233 02       		.byte	2
 1101 0234 2F       		.byte	47
 1102 0235 08       		.byte	8
 1103 0236 30       		.byte	48
 1104 0237 10       		.byte	16
 1105 0238 32       		.byte	50
 1106 0239 20       		.byte	32
 1107 023a 33       		.byte	51
 1108 023b 80       		.byte	-128
 1109 023c 35       		.byte	53
 1110 023d 10       		.byte	16
 1111 023e 36       		.byte	54
 1112 023f 03       		.byte	3
 1113 0240 37       		.byte	55
 1114 0241 09       		.byte	9
 1115 0242 38       		.byte	56
 1116 0243 04       		.byte	4
 1117 0244 3A       		.byte	58
 1118 0245 20       		.byte	32
 1119 0246 3B       		.byte	59
 1120 0247 22       		.byte	34
 1121 0248 3C       		.byte	60
 1122 0249 88       		.byte	-120
ARM GAS  C:\Users\g\AppData\Local\Temp\cc0mLdPA.s 			page 35


 1123 024a 3D       		.byte	61
 1124 024b 44       		.byte	68
 1125 024c 5E       		.byte	94
 1126 024d 44       		.byte	68
 1127 024e 5F       		.byte	95
 1128 024f 11       		.byte	17
 1129 0250 66       		.byte	102
 1130 0251 08       		.byte	8
 1131 0252 67       		.byte	103
 1132 0253 04       		.byte	4
 1133 0254 76       		.byte	118
 1134 0255 80       		.byte	-128
 1135 0256 7F       		.byte	127
 1136 0257 10       		.byte	16
 1137 0258 88       		.byte	-120
 1138 0259 02       		.byte	2
 1139 025a 8B       		.byte	-117
 1140 025b 08       		.byte	8
 1141 025c 91       		.byte	-111
 1142 025d 10       		.byte	16
 1143 025e 92       		.byte	-110
 1144 025f 44       		.byte	68
 1145 0260 93       		.byte	-109
 1146 0261 35       		.byte	53
 1147 0262 94       		.byte	-108
 1148 0263 04       		.byte	4
 1149 0264 95       		.byte	-107
 1150 0265 40       		.byte	64
 1151 0266 99       		.byte	-103
 1152 0267 04       		.byte	4
 1153 0268 9A       		.byte	-102
 1154 0269 08       		.byte	8
 1155 026a 9B       		.byte	-101
 1156 026b 08       		.byte	8
 1157 026c 9C       		.byte	-100
 1158 026d 42       		.byte	66
 1159 026e 9D       		.byte	-99
 1160 026f 10       		.byte	16
 1161 0270 9F       		.byte	-97
 1162 0271 01       		.byte	1
 1163 0272 A0       		.byte	-96
 1164 0273 04       		.byte	4
 1165 0274 A2       		.byte	-94
 1166 0275 21       		.byte	33
 1167 0276 A3       		.byte	-93
 1168 0277 80       		.byte	-128
 1169 0278 A4       		.byte	-92
 1170 0279 01       		.byte	1
 1171 027a A5       		.byte	-91
 1172 027b 80       		.byte	-128
 1173 027c A6       		.byte	-90
 1174 027d 10       		.byte	16
 1175 027e A7       		.byte	-89
 1176 027f 10       		.byte	16
 1177 0280 AF       		.byte	-81
 1178 0281 04       		.byte	4
 1179 0282 B4       		.byte	-76
ARM GAS  C:\Users\g\AppData\Local\Temp\cc0mLdPA.s 			page 36


 1180 0283 10       		.byte	16
 1181 0284 B6       		.byte	-74
 1182 0285 48       		.byte	72
 1183 0286 B7       		.byte	-73
 1184 0287 40       		.byte	64
 1185 0288 C0       		.byte	-64
 1186 0289 FF       		.byte	-1
 1187 028a C2       		.byte	-62
 1188 028b EA       		.byte	-22
 1189 028c C4       		.byte	-60
 1190 028d F5       		.byte	-11
 1191 028e CA       		.byte	-54
 1192 028f A5       		.byte	-91
 1193 0290 CC       		.byte	-52
 1194 0291 EC       		.byte	-20
 1195 0292 CE       		.byte	-50
 1196 0293 57       		.byte	87
 1197 0294 D6       		.byte	-42
 1198 0295 F0       		.byte	-16
 1199 0296 D8       		.byte	-40
 1200 0297 60       		.byte	96
 1201 0298 DE       		.byte	-34
 1202 0299 40       		.byte	64
 1203 029a E2       		.byte	-30
 1204 029b 08       		.byte	8
 1205 029c E6       		.byte	-26
 1206 029d 01       		.byte	1
 1207 029e 00       		.byte	0
 1208 029f 02       		.byte	2
 1209 02a0 05       		.byte	5
 1210 02a1 02       		.byte	2
 1211 02a2 6B       		.byte	107
 1212 02a3 80       		.byte	-128
 1213 02a4 6E       		.byte	110
 1214 02a5 80       		.byte	-128
 1215 02a6 84       		.byte	-124
 1216 02a7 01       		.byte	1
 1217 02a8 86       		.byte	-122
 1218 02a9 40       		.byte	64
 1219 02aa C0       		.byte	-64
 1220 02ab 30       		.byte	48
 1221 02ac DA       		.byte	-38
 1222 02ad 80       		.byte	-128
 1223 02ae DC       		.byte	-36
 1224 02af 20       		.byte	32
 1225 02b0 E4       		.byte	-28
 1226 02b1 10       		.byte	16
 1227 02b2 E6       		.byte	-26
 1228 02b3 40       		.byte	64
 1229 02b4 23       		.byte	35
 1230 02b5 80       		.byte	-128
 1231 02b6 52       		.byte	82
 1232 02b7 40       		.byte	64
 1233 02b8 5B       		.byte	91
 1234 02b9 40       		.byte	64
 1235 02ba 83       		.byte	-125
 1236 02bb 40       		.byte	64
ARM GAS  C:\Users\g\AppData\Local\Temp\cc0mLdPA.s 			page 37


 1237 02bc 86       		.byte	-122
 1238 02bd 40       		.byte	64
 1239 02be 9F       		.byte	-97
 1240 02bf 80       		.byte	-128
 1241 02c0 AD       		.byte	-83
 1242 02c1 02       		.byte	2
 1243 02c2 C8       		.byte	-56
 1244 02c3 40       		.byte	64
 1245 02c4 D4       		.byte	-44
 1246 02c5 A0       		.byte	-96
 1247 02c6 E2       		.byte	-30
 1248 02c7 10       		.byte	16
 1249 02c8 E6       		.byte	-26
 1250 02c9 80       		.byte	-128
 1251 02ca EC       		.byte	-20
 1252 02cb 10       		.byte	16
 1253 02cc 5E       		.byte	94
 1254 02cd 08       		.byte	8
 1255 02ce 61       		.byte	97
 1256 02cf 60       		.byte	96
 1257 02d0 65       		.byte	101
 1258 02d1 04       		.byte	4
 1259 02d2 D6       		.byte	-42
 1260 02d3 03       		.byte	3
 1261 02d4 D8       		.byte	-40
 1262 02d5 03       		.byte	3
 1263 02d6 19       		.byte	25
 1264 02d7 04       		.byte	4
 1265 02d8 1D       		.byte	29
 1266 02d9 40       		.byte	64
 1267 02da 1F       		.byte	31
 1268 02db 02       		.byte	2
 1269 02dc 21       		.byte	33
 1270 02dd 20       		.byte	32
 1271 02de 25       		.byte	37
 1272 02df 80       		.byte	-128
 1273 02e0 26       		.byte	38
 1274 02e1 04       		.byte	4
 1275 02e2 81       		.byte	-127
 1276 02e3 80       		.byte	-128
 1277 02e4 87       		.byte	-121
 1278 02e5 02       		.byte	2
 1279 02e6 9D       		.byte	-99
 1280 02e7 44       		.byte	68
 1281 02e8 A5       		.byte	-91
 1282 02e9 20       		.byte	32
 1283 02ea A6       		.byte	-90
 1284 02eb 04       		.byte	4
 1285 02ec C6       		.byte	-58
 1286 02ed 0D       		.byte	13
 1287 02ee C8       		.byte	-56
 1288 02ef 0D       		.byte	13
 1289 02f0 01       		.byte	1
 1290 02f1 01       		.byte	1
 1291 02f2 10       		.byte	16
 1292 02f3 01       		.byte	1
 1293              		.text
ARM GAS  C:\Users\g\AppData\Local\Temp\cc0mLdPA.s 			page 38


 1294              	.Letext0:
 1295              		.file 2 "c:\\program files (x86)\\cypress\\psoc creator\\3.3\\psoc creator\\import\\gnu\\arm\\4.9.
 1296              		.file 3 ".\\Generated_Source\\PSoC4\\cytypes.h"
 1297              		.file 4 ".\\Generated_Source\\PSoC4\\CyLib.h"