ARM GAS  C:\Users\g\AppData\Local\Temp\ccSt88Qa.s 			page 1


   1              		.cpu cortex-m0
   2              		.fpu softvfp
   3              		.eabi_attribute 20, 1
   4              		.eabi_attribute 21, 1
   5              		.eabi_attribute 23, 3
   6              		.eabi_attribute 24, 1
   7              		.eabi_attribute 25, 1
   8              		.eabi_attribute 26, 1
   9              		.eabi_attribute 30, 1
  10              		.eabi_attribute 34, 0
  11              		.eabi_attribute 18, 4
  12              		.code	16
  13              		.file	"main.c"
  14              		.text
  15              	.Ltext0:
  16              		.cfi_sections	.debug_frame
  17              		.section	.text.transmitUpdate,"ax",%progbits
  18              		.align	2
  19              		.global	transmitUpdate
  20              		.code	16
  21              		.thumb_func
  22              		.type	transmitUpdate, %function
  23              	transmitUpdate:
  24              	.LFB38:
  25              		.file 1 ".\\main.c"
   1:.\main.c      **** /* ========================================
   2:.\main.c      **** 
   3:.\main.c      ****     current[mA]=1000*millivolts/(20*Rsense[ohm])=5*millivolts
   4:.\main.c      ****     current_limit[mA]=40*current_setting
   5:.\main.c      ****     
   6:.\main.c      ****    ======================================== */
   7:.\main.c      ****     
   8:.\main.c      **** #include <project.h>
   9:.\main.c      **** #include <stdlib.h>
  10:.\main.c      **** 
  11:.\main.c      **** //the maximum amount that the integral error is allowed to grow
  12:.\main.c      **** //change to reduce or increase the integral term effect on the system
  13:.\main.c      **** #define ERROR_INTEGRAL_MAX      10000
  14:.\main.c      **** //maximum output value for current limiting PI control loop
  15:.\main.c      **** //do not change this one
  16:.\main.c      **** #define DUTY_REDUCE_MAX         4094
  17:.\main.c      **** //how many encoder counts per step pulse
  18:.\main.c      **** #define SET_POINT_MULTIPLIER    1
  19:.\main.c      **** //number of cpu cycles the motor has to reach the desired position afeter each step pulse
  20:.\main.c      **** #define TIMEOUT                 20000
  21:.\main.c      **** 
  22:.\main.c      **** int fast_itoa(char a_string[7], int16_t a_number) {
  23:.\main.c      ****     if(a_number<0) {
  24:.\main.c      ****         a_string[0]='-';
  25:.\main.c      ****         a_number=-a_number;
  26:.\main.c      ****     }
  27:.\main.c      ****     else a_string[0]='0';
  28:.\main.c      ****     a_string[1]=0;
  29:.\main.c      ****     while(a_number>=10000) {
  30:.\main.c      ****         a_number-=10000;
  31:.\main.c      ****         a_string[1]++;
  32:.\main.c      ****     }
ARM GAS  C:\Users\g\AppData\Local\Temp\ccSt88Qa.s 			page 2


  33:.\main.c      ****     a_string[2]=0;
  34:.\main.c      ****     while(a_number>=1000) {
  35:.\main.c      ****         a_number-=1000;
  36:.\main.c      ****         a_string[2]++;
  37:.\main.c      ****     }
  38:.\main.c      ****     a_string[3]=0;
  39:.\main.c      ****     while(a_number>=100) {
  40:.\main.c      ****         a_number-=100;
  41:.\main.c      ****         a_string[3]++;
  42:.\main.c      ****     }
  43:.\main.c      ****     a_string[4]=0;
  44:.\main.c      ****     while(a_number>=10) {
  45:.\main.c      ****         a_number-=10;
  46:.\main.c      ****         a_string[4]++;
  47:.\main.c      ****     }
  48:.\main.c      ****     a_string[5]=a_number;
  49:.\main.c      ****     a_string[6]='\0';
  50:.\main.c      ****     
  51:.\main.c      ****     for(int i=1; i<6; i++) a_string[i]+=48;
  52:.\main.c      ****     
  53:.\main.c      ****     return 1;
  54:.\main.c      **** }
  55:.\main.c      **** 
  56:.\main.c      **** CY_ISR_PROTO(stepCount);
  57:.\main.c      **** CY_ISR_PROTO(uartReceive);
  58:.\main.c      **** CY_ISR_PROTO(transmitUpdate);
  59:.\main.c      **** 
  60:.\main.c      **** //error counter
  61:.\main.c      **** volatile int32_t set_point;
  62:.\main.c      **** //cycle counter for motor power timeout
  63:.\main.c      **** volatile uint16_t timeout_counter;
  64:.\main.c      **** //uart buffer
  65:.\main.c      **** volatile uint8_t command_ready, command_index, transmit_ready;
  66:.\main.c      **** volatile char command_parser[6];
  67:.\main.c      **** 
  68:.\main.c      **** 
  69:.\main.c      **** 
  70:.\main.c      **** int main() {
  71:.\main.c      **** 
  72:.\main.c      ****     int16_t error=0, error_integral=0, error_derivative=0, error_at_timeout=0, millivolts=0, duty_r
  73:.\main.c      ****     int32_t output=0, process_variable=0, process_variable_prev=0;
  74:.\main.c      ****     uint8_t motor_shutdown=0, timeout_flag=0;
  75:.\main.c      ****     
  76:.\main.c      ****     //emulated EEPROM 
  77:.\main.c      ****     static const CYCODE uint8_t kp=30, ki=5, kd=00, current_setting=255, invert_motor=1, ferror=255
  78:.\main.c      ****     //pointers to respective EEPROM addresses
  79:.\main.c      ****     volatile const uint8_t *eeprom_kp, *eeprom_ki, *eeprom_kd, *eeprom_current_setting, *eeprom_inv
  80:.\main.c      **** 
  81:.\main.c      ****     //UART data
  82:.\main.c      ****     uint8_t command_value=0;
  83:.\main.c      ****     char command_type='z';
  84:.\main.c      ****     char command_local[5], current_tx[7], error_tx[7];
  85:.\main.c      ****     
  86:.\main.c      ****     //"board powered" signal
  87:.\main.c      ****     vin_Write(1);
  88:.\main.c      ****     //
  89:.\main.c      ****     QDEC_Start();
ARM GAS  C:\Users\g\AppData\Local\Temp\ccSt88Qa.s 			page 3


  90:.\main.c      ****     //192008N1
  91:.\main.c      ****     UART_Start();
  92:.\main.c      ****     //12-bit resolution. In phase with PWM_MOT
  93:.\main.c      ****     ADC_Start();
  94:.\main.c      ****     //UART transmit period timer (curently 100 transmissions per second)
  95:.\main.c      ****     TX_SEND_Start();
  96:.\main.c      ****     //Just the EEPROM...
  97:.\main.c      ****     EEPROM_Start();
  98:.\main.c      ****     //prepare gate driver for operation.  12-bit 6 kHz PWM
  99:.\main.c      ****     enable_gate_driver_Write(1);
 100:.\main.c      ****     //UPWM_Start();
 101:.\main.c      ****     VPWM_Start();
 102:.\main.c      ****     WPWM_Start();
 103:.\main.c      ****     
 104:.\main.c      ****     //ISRs go here
 105:.\main.c      ****     rxISR_StartEx(uartReceive);
 106:.\main.c      ****     txISR_StartEx(transmitUpdate);
 107:.\main.c      ****     stepISR_StartEx(stepCount);
 108:.\main.c      ****     
 109:.\main.c      ****     //store respective EEPROM addresses for future read operations
 110:.\main.c      ****     eeprom_kp=&kp;
 111:.\main.c      ****     eeprom_ki=&ki;
 112:.\main.c      ****     eeprom_kd=&kd;
 113:.\main.c      ****     eeprom_current_setting=&current_setting;
 114:.\main.c      ****     eeprom_invert_motor=&invert_motor;
 115:.\main.c      ****     eeprom_ferror=&ferror;
 116:.\main.c      ****     eeprom_uart_data=&uart_data;
 117:.\main.c      ****     
 118:.\main.c      ****     // Enable global interrupts
 119:.\main.c      ****     CyGlobalIntEnable;
 120:.\main.c      ****     
 121:.\main.c      ****     for(;;) {
 122:.\main.c      ****         
 123:.\main.c      ****         //follwing error exceeded
 124:.\main.c      ****         //prevents motor runaway when encoder count direction is backwards and rises an alarm when 
 125:.\main.c      ****         if(error>*eeprom_ferror || error<-*eeprom_ferror) {
 126:.\main.c      ****             error_Write(0);
 127:.\main.c      ****             err_Write(1);
 128:.\main.c      ****         }
 129:.\main.c      ****         //if no new step pulse is received for a number of cycles, shut down the motor, until a new
 130:.\main.c      ****         else {
 131:.\main.c      ****             if(timeout_counter<TIMEOUT) {
 132:.\main.c      ****                 timeout_counter++;
 133:.\main.c      ****                 timeout_flag=0;
 134:.\main.c      ****                 motor_shutdown=0;
 135:.\main.c      ****             }
 136:.\main.c      ****             else {
 137:.\main.c      ****                 if(timeout_flag==0) {
 138:.\main.c      ****                     error_at_timeout=error;
 139:.\main.c      ****                     timeout_flag=1;
 140:.\main.c      ****                     motor_shutdown=1;
 141:.\main.c      ****                 }
 142:.\main.c      ****                 if(error_at_timeout-error>2 || error_at_timeout-error<-2) timeout_counter=0;
 143:.\main.c      ****             }
 144:.\main.c      ****         }
 145:.\main.c      ****         
 146:.\main.c      ****         //gate driver error
ARM GAS  C:\Users\g\AppData\Local\Temp\ccSt88Qa.s 			page 4


 147:.\main.c      ****         //undervoltage or overtemperature
 148:.\main.c      ****         if(fault_gate_driver_Read()==0) {}
 149:.\main.c      ****         
 150:.\main.c      ****         //reset pin
 151:.\main.c      ****         if(reset_Read()==0) {
 152:.\main.c      ****             motor_shutdown=1;
 153:.\main.c      ****         }
 154:.\main.c      ****         
 155:.\main.c      ****          //current limiting PI control loop
 156:.\main.c      ****         millivolts=(ADC_GetResult16(0)>>1);
 157:.\main.c      ****         duty_reduce+=((millivolts-(*eeprom_current_setting<<3))>>3);
 158:.\main.c      ****         if(duty_reduce>DUTY_REDUCE_MAX) duty_reduce=DUTY_REDUCE_MAX;
 159:.\main.c      ****         else if(duty_reduce<0) duty_reduce=0;
 160:.\main.c      ****         duty_reduce=0;
 161:.\main.c      ****         
 162:.\main.c      ****         //calculate error
 163:.\main.c      ****         process_variable=QDEC_GetCounter();
 164:.\main.c      ****         error=set_point-process_variable;
 165:.\main.c      ****         //calculate change in process variable to prevent derivative kickback
 166:.\main.c      ****         error_derivative=process_variable-process_variable_prev;
 167:.\main.c      ****         process_variable_prev=process_variable;
 168:.\main.c      ****         //sum of errors over time
 169:.\main.c      ****         error_integral+=error;
 170:.\main.c      ****         //limit integral error
 171:.\main.c      ****         if(error_integral>ERROR_INTEGRAL_MAX) error_integral=ERROR_INTEGRAL_MAX;
 172:.\main.c      ****         else if(error_integral<-ERROR_INTEGRAL_MAX) error_integral=-ERROR_INTEGRAL_MAX;
 173:.\main.c      ****         
 174:.\main.c      ****         //output value calculation and constraining
 175:.\main.c      ****         output=(*eeprom_kp*error)+((*eeprom_ki*error_integral)>>10)-(*eeprom_kd*error_derivative);
 176:.\main.c      ****         if(*eeprom_invert_motor) {
 177:.\main.c      ****             if(output>=0) {
 178:.\main.c      ****                 VPWM_WriteCompare(1);
 179:.\main.c      ****                 if(output>4095) output=4095;
 180:.\main.c      ****                 output-=duty_reduce;
 181:.\main.c      ****                 if(output<1) output=1;
 182:.\main.c      ****                 if(motor_shutdown) WPWM_WriteCompare(1);
 183:.\main.c      ****                 else WPWM_WriteCompare(output);
 184:.\main.c      ****             }
 185:.\main.c      ****             else {
 186:.\main.c      ****                 output=-output;
 187:.\main.c      ****                 WPWM_WriteCompare(1);
 188:.\main.c      ****                 if(output>4095) output=4095;
 189:.\main.c      ****                 output-=duty_reduce;
 190:.\main.c      ****                 if(output<1) output=1;
 191:.\main.c      ****                 if(motor_shutdown) VPWM_WriteCompare(1);
 192:.\main.c      ****                 else VPWM_WriteCompare(output);
 193:.\main.c      ****             }
 194:.\main.c      ****         }
 195:.\main.c      ****         else {
 196:.\main.c      ****             if(output>=0) {
 197:.\main.c      ****                 WPWM_WriteCompare(1);
 198:.\main.c      ****                 if(output>4095) output=4095;
 199:.\main.c      ****                 output-=duty_reduce;
 200:.\main.c      ****                 if(output<1) output=1;
 201:.\main.c      ****                 if(motor_shutdown) VPWM_WriteCompare(1);
 202:.\main.c      ****                 else VPWM_WriteCompare(output);
 203:.\main.c      ****             }
ARM GAS  C:\Users\g\AppData\Local\Temp\ccSt88Qa.s 			page 5


 204:.\main.c      ****             else {
 205:.\main.c      ****                 output=-output;
 206:.\main.c      ****                 VPWM_WriteCompare(1);
 207:.\main.c      ****                 if(output>4095) output=4095;
 208:.\main.c      ****                 output-=duty_reduce;
 209:.\main.c      ****                 if(output<1) output=1;
 210:.\main.c      ****                 if(motor_shutdown) WPWM_WriteCompare(1);
 211:.\main.c      ****                 else WPWM_WriteCompare(output);
 212:.\main.c      ****             }
 213:.\main.c      ****         }
 214:.\main.c      ****         
 215:.\main.c      ****         //parse UART data. Do not use numbers as condition for the switch
 216:.\main.c      ****         if(command_ready==1) {
 217:.\main.c      ****             command_type=command_parser[0];
 218:.\main.c      ****             for(int i=0; i<5; i++) command_local[i]=command_parser[i+1];
 219:.\main.c      ****             command_value=atoi(command_local);
 220:.\main.c      ****             switch(command_type) {
 221:.\main.c      ****                 //PID coefficients
 222:.\main.c      ****                 case 'p':
 223:.\main.c      ****                     EEPROM_Write(&command_value, &kp, 1);
 224:.\main.c      ****                 break;
 225:.\main.c      ****                 case 'i':
 226:.\main.c      ****                     EEPROM_Write(&command_value, &ki, 1);
 227:.\main.c      ****                 break;
 228:.\main.c      ****                 case 'd':
 229:.\main.c      ****                     EEPROM_Write(&command_value, &kd, 1);
 230:.\main.c      ****                 break;
 231:.\main.c      ****                 //currernt limit value
 232:.\main.c      ****                 case 'c':
 233:.\main.c      ****                     EEPROM_Write(&command_value, &current_setting, 1);
 234:.\main.c      ****                 break;
 235:.\main.c      ****                 //motor direction of rotation flag
 236:.\main.c      ****                 case 'r':
 237:.\main.c      ****                     EEPROM_Write(&command_value, &invert_motor, 1);
 238:.\main.c      ****                 break;
 239:.\main.c      ****                 //maximum allowable following error
 240:.\main.c      ****                 case 'f':
 241:.\main.c      ****                     EEPROM_Write(&command_value, &ferror, 1);
 242:.\main.c      ****                 break;
 243:.\main.c      ****                 //transmit diagnostic data flag
 244:.\main.c      ****                 case 'u':
 245:.\main.c      ****                     EEPROM_Write(&command_value, &uart_data, 1);
 246:.\main.c      ****                 break;
 247:.\main.c      ****                 //move motor
 248:.\main.c      ****                 case '+':
 249:.\main.c      ****                     error+=command_value;
 250:.\main.c      ****                 break;
 251:.\main.c      ****                 case '-':
 252:.\main.c      ****                     error-=command_value;
 253:.\main.c      ****                 break;
 254:.\main.c      ****             }
 255:.\main.c      ****             command_ready=0;
 256:.\main.c      ****         }
 257:.\main.c      ****         
 258:.\main.c      ****         //prepare UART strings
 259:.\main.c      ****         //fast_itoa(current_tx, 5*millivolts);
 260:.\main.c      ****         fast_itoa(error_tx, error+400);
ARM GAS  C:\Users\g\AppData\Local\Temp\ccSt88Qa.s 			page 6


 261:.\main.c      ****         
 262:.\main.c      ****         //string transmission begins with '$' and ends with ';'
 263:.\main.c      ****         //insert a ' ' between each string
 264:.\main.c      ****         if(transmit_ready) {
 265:.\main.c      ****             if(*eeprom_uart_data) {
 266:.\main.c      ****                 UART_UartPutChar('$');
 267:.\main.c      ****                 //transmit error value
 268:.\main.c      ****                 UART_UartPutString(error_tx);
 269:.\main.c      ****                 UART_UartPutChar(' ');
 270:.\main.c      ****                 //transmit current value
 271:.\main.c      ****                 UART_UartPutString(current_tx);
 272:.\main.c      ****                 UART_UartPutChar(';');
 273:.\main.c      ****                 transmit_ready=0;
 274:.\main.c      ****             }
 275:.\main.c      ****         }
 276:.\main.c      ****                 
 277:.\main.c      ****     }
 278:.\main.c      **** }
 279:.\main.c      **** 
 280:.\main.c      **** //read step/dir input
 281:.\main.c      **** CY_ISR(stepCount) {
 282:.\main.c      ****     timeout_counter=0;
 283:.\main.c      ****     if (direction_Read()) {
 284:.\main.c      ****         set_point+=SET_POINT_MULTIPLIER;
 285:.\main.c      ****     }
 286:.\main.c      ****     else {
 287:.\main.c      ****         set_point-=SET_POINT_MULTIPLIER;
 288:.\main.c      ****     }
 289:.\main.c      ****     step_ClearInterrupt();
 290:.\main.c      **** }
 291:.\main.c      **** 
 292:.\main.c      **** //write to uart buffer
 293:.\main.c      **** CY_ISR(uartReceive) {
 294:.\main.c      ****     command_parser[command_index]=UART_UartGetChar();
 295:.\main.c      ****     if(command_parser[command_index]!=';') {
 296:.\main.c      ****         command_index++;
 297:.\main.c      ****         command_ready=0;
 298:.\main.c      ****     }
 299:.\main.c      ****     else {
 300:.\main.c      ****         command_index=0;
 301:.\main.c      ****         command_ready=1;
 302:.\main.c      ****     }
 303:.\main.c      ****     UART_ClearRxInterruptSource(UART_INTR_RX_NOT_EMPTY);
 304:.\main.c      **** }
 305:.\main.c      **** 
 306:.\main.c      **** //set UART transmission allowed flag
 307:.\main.c      **** CY_ISR(transmitUpdate) {
  26              		.loc 1 307 0
  27              		.cfi_startproc
 308:.\main.c      ****     transmit_ready=1;
  28              		.loc 1 308 0
  29 0000 0122     		mov	r2, #1
  30 0002 014B     		ldr	r3, .L2
  31 0004 1A70     		strb	r2, [r3]
 309:.\main.c      **** }
  32              		.loc 1 309 0
  33              		@ sp needed
ARM GAS  C:\Users\g\AppData\Local\Temp\ccSt88Qa.s 			page 7


  34 0006 7047     		bx	lr
  35              	.L3:
  36              		.align	2
  37              	.L2:
  38 0008 00000000 		.word	transmit_ready
  39              		.cfi_endproc
  40              	.LFE38:
  41              		.size	transmitUpdate, .-transmitUpdate
  42              		.section	.text.stepCount,"ax",%progbits
  43              		.align	2
  44              		.global	stepCount
  45              		.code	16
  46              		.thumb_func
  47              		.type	stepCount, %function
  48              	stepCount:
  49              	.LFB36:
 281:.\main.c      ****     timeout_counter=0;
  50              		.loc 1 281 0
  51              		.cfi_startproc
  52 0000 08B5     		push	{r3, lr}
  53              		.cfi_def_cfa_offset 8
  54              		.cfi_offset 3, -8
  55              		.cfi_offset 14, -4
 282:.\main.c      ****     if (direction_Read()) {
  56              		.loc 1 282 0
  57 0002 0022     		mov	r2, #0
  58 0004 084B     		ldr	r3, .L7
  59 0006 1A80     		strh	r2, [r3]
 283:.\main.c      ****         set_point+=SET_POINT_MULTIPLIER;
  60              		.loc 1 283 0
  61 0008 FFF7FEFF 		bl	direction_Read
  62              	.LVL0:
  63 000c 0028     		cmp	r0, #0
  64 000e 04D0     		beq	.L5
 284:.\main.c      ****     }
  65              		.loc 1 284 0
  66 0010 064A     		ldr	r2, .L7+4
  67 0012 1368     		ldr	r3, [r2]
  68 0014 0133     		add	r3, r3, #1
  69 0016 1360     		str	r3, [r2]
  70 0018 03E0     		b	.L6
  71              	.L5:
 287:.\main.c      ****     }
  72              		.loc 1 287 0
  73 001a 044A     		ldr	r2, .L7+4
  74 001c 1368     		ldr	r3, [r2]
  75 001e 013B     		sub	r3, r3, #1
  76 0020 1360     		str	r3, [r2]
  77              	.L6:
 289:.\main.c      **** }
  78              		.loc 1 289 0
  79 0022 FFF7FEFF 		bl	step_ClearInterrupt
  80              	.LVL1:
 290:.\main.c      **** 
  81              		.loc 1 290 0
  82              		@ sp needed
  83 0026 08BD     		pop	{r3, pc}
ARM GAS  C:\Users\g\AppData\Local\Temp\ccSt88Qa.s 			page 8


  84              	.L8:
  85              		.align	2
  86              	.L7:
  87 0028 00000000 		.word	timeout_counter
  88 002c 00000000 		.word	set_point
  89              		.cfi_endproc
  90              	.LFE36:
  91              		.size	stepCount, .-stepCount
  92              		.section	.text.uartReceive,"ax",%progbits
  93              		.align	2
  94              		.global	uartReceive
  95              		.code	16
  96              		.thumb_func
  97              		.type	uartReceive, %function
  98              	uartReceive:
  99              	.LFB37:
 293:.\main.c      ****     command_parser[command_index]=UART_UartGetChar();
 100              		.loc 1 293 0
 101              		.cfi_startproc
 102 0000 38B5     		push	{r3, r4, r5, lr}
 103              		.cfi_def_cfa_offset 16
 104              		.cfi_offset 3, -16
 105              		.cfi_offset 4, -12
 106              		.cfi_offset 5, -8
 107              		.cfi_offset 14, -4
 294:.\main.c      ****     if(command_parser[command_index]!=';') {
 108              		.loc 1 294 0
 109 0002 104D     		ldr	r5, .L12
 110 0004 2C78     		ldrb	r4, [r5]
 111 0006 E4B2     		uxtb	r4, r4
 112 0008 FFF7FEFF 		bl	UART_UartGetChar
 113              	.LVL2:
 114 000c C0B2     		uxtb	r0, r0
 115 000e 0E4A     		ldr	r2, .L12+4
 116 0010 1055     		strb	r0, [r2, r4]
 295:.\main.c      ****         command_index++;
 117              		.loc 1 295 0
 118 0012 2B78     		ldrb	r3, [r5]
 119 0014 DBB2     		uxtb	r3, r3
 120 0016 D35C     		ldrb	r3, [r2, r3]
 121 0018 3B2B     		cmp	r3, #59
 122 001a 08D0     		beq	.L10
 296:.\main.c      ****         command_ready=0;
 123              		.loc 1 296 0
 124 001c 094A     		ldr	r2, .L12
 125 001e 1378     		ldrb	r3, [r2]
 126 0020 0133     		add	r3, r3, #1
 127 0022 DBB2     		uxtb	r3, r3
 128 0024 1370     		strb	r3, [r2]
 297:.\main.c      ****     }
 129              		.loc 1 297 0
 130 0026 0022     		mov	r2, #0
 131 0028 084B     		ldr	r3, .L12+8
 132 002a 1A70     		strb	r2, [r3]
 133 002c 05E0     		b	.L11
 134              	.L10:
 300:.\main.c      ****         command_ready=1;
ARM GAS  C:\Users\g\AppData\Local\Temp\ccSt88Qa.s 			page 9


 135              		.loc 1 300 0
 136 002e 0022     		mov	r2, #0
 137 0030 044B     		ldr	r3, .L12
 138 0032 1A70     		strb	r2, [r3]
 301:.\main.c      ****     }
 139              		.loc 1 301 0
 140 0034 0132     		add	r2, r2, #1
 141 0036 054B     		ldr	r3, .L12+8
 142 0038 1A70     		strb	r2, [r3]
 143              	.L11:
 303:.\main.c      **** }
 144              		.loc 1 303 0
 145 003a 0422     		mov	r2, #4
 146 003c 044B     		ldr	r3, .L12+12
 147 003e 1A60     		str	r2, [r3]
 304:.\main.c      **** 
 148              		.loc 1 304 0
 149              		@ sp needed
 150 0040 38BD     		pop	{r3, r4, r5, pc}
 151              	.L13:
 152 0042 C046     		.align	2
 153              	.L12:
 154 0044 00000000 		.word	command_index
 155 0048 00000000 		.word	command_parser
 156 004c 00000000 		.word	command_ready
 157 0050 C00F0740 		.word	1074204608
 158              		.cfi_endproc
 159              	.LFE37:
 160              		.size	uartReceive, .-uartReceive
 161              		.section	.text.fast_itoa,"ax",%progbits
 162              		.align	2
 163              		.global	fast_itoa
 164              		.code	16
 165              		.thumb_func
 166              		.type	fast_itoa, %function
 167              	fast_itoa:
 168              	.LFB34:
  22:.\main.c      ****     if(a_number<0) {
 169              		.loc 1 22 0
 170              		.cfi_startproc
 171              	.LVL3:
  23:.\main.c      ****         a_string[0]='-';
 172              		.loc 1 23 0
 173 0000 0029     		cmp	r1, #0
 174 0002 04DA     		bge	.L15
  24:.\main.c      ****         a_number=-a_number;
 175              		.loc 1 24 0
 176 0004 2D23     		mov	r3, #45
 177 0006 0370     		strb	r3, [r0]
  25:.\main.c      ****     }
 178              		.loc 1 25 0
 179 0008 4942     		neg	r1, r1
 180              	.LVL4:
 181 000a 09B2     		sxth	r1, r1
 182              	.LVL5:
 183 000c 01E0     		b	.L16
 184              	.L15:
ARM GAS  C:\Users\g\AppData\Local\Temp\ccSt88Qa.s 			page 10


  27:.\main.c      ****     a_string[1]=0;
 185              		.loc 1 27 0
 186 000e 3023     		mov	r3, #48
 187 0010 0370     		strb	r3, [r0]
 188              	.L16:
  28:.\main.c      ****     while(a_number>=10000) {
 189              		.loc 1 28 0
 190 0012 0023     		mov	r3, #0
 191 0014 4370     		strb	r3, [r0, #1]
  29:.\main.c      ****         a_number-=10000;
 192              		.loc 1 29 0
 193 0016 06E0     		b	.L17
 194              	.L18:
  30:.\main.c      ****         a_string[1]++;
 195              		.loc 1 30 0
 196 0018 1C4B     		ldr	r3, .L27
 197 001a 9C46     		mov	ip, r3
 198 001c 6144     		add	r1, r1, ip
 199              	.LVL6:
 200 001e 09B2     		sxth	r1, r1
 201              	.LVL7:
  31:.\main.c      ****     }
 202              		.loc 1 31 0
 203 0020 4378     		ldrb	r3, [r0, #1]
 204 0022 0133     		add	r3, r3, #1
 205 0024 4370     		strb	r3, [r0, #1]
 206              	.L17:
  29:.\main.c      ****         a_number-=10000;
 207              		.loc 1 29 0
 208 0026 1A4B     		ldr	r3, .L27+4
 209 0028 9942     		cmp	r1, r3
 210 002a F5DC     		bgt	.L18
  33:.\main.c      ****     while(a_number>=1000) {
 211              		.loc 1 33 0
 212 002c 0023     		mov	r3, #0
 213 002e 8370     		strb	r3, [r0, #2]
  34:.\main.c      ****         a_number-=1000;
 214              		.loc 1 34 0
 215 0030 06E0     		b	.L19
 216              	.L20:
  35:.\main.c      ****         a_string[2]++;
 217              		.loc 1 35 0
 218 0032 184B     		ldr	r3, .L27+8
 219 0034 9C46     		mov	ip, r3
 220 0036 6144     		add	r1, r1, ip
 221              	.LVL8:
 222 0038 09B2     		sxth	r1, r1
 223              	.LVL9:
  36:.\main.c      ****     }
 224              		.loc 1 36 0
 225 003a 8378     		ldrb	r3, [r0, #2]
 226 003c 0133     		add	r3, r3, #1
 227 003e 8370     		strb	r3, [r0, #2]
 228              	.L19:
  34:.\main.c      ****         a_number-=1000;
 229              		.loc 1 34 0
 230 0040 154B     		ldr	r3, .L27+12
ARM GAS  C:\Users\g\AppData\Local\Temp\ccSt88Qa.s 			page 11


 231 0042 9942     		cmp	r1, r3
 232 0044 F5DC     		bgt	.L20
  38:.\main.c      ****     while(a_number>=100) {
 233              		.loc 1 38 0
 234 0046 0023     		mov	r3, #0
 235 0048 C370     		strb	r3, [r0, #3]
  39:.\main.c      ****         a_number-=100;
 236              		.loc 1 39 0
 237 004a 04E0     		b	.L21
 238              	.L22:
  40:.\main.c      ****         a_string[3]++;
 239              		.loc 1 40 0
 240 004c 6439     		sub	r1, r1, #100
 241              	.LVL10:
 242 004e 09B2     		sxth	r1, r1
 243              	.LVL11:
  41:.\main.c      ****     }
 244              		.loc 1 41 0
 245 0050 C378     		ldrb	r3, [r0, #3]
 246 0052 0133     		add	r3, r3, #1
 247 0054 C370     		strb	r3, [r0, #3]
 248              	.L21:
  39:.\main.c      ****         a_number-=100;
 249              		.loc 1 39 0
 250 0056 6329     		cmp	r1, #99
 251 0058 F8DC     		bgt	.L22
  43:.\main.c      ****     while(a_number>=10) {
 252              		.loc 1 43 0
 253 005a 0023     		mov	r3, #0
 254 005c 0371     		strb	r3, [r0, #4]
  44:.\main.c      ****         a_number-=10;
 255              		.loc 1 44 0
 256 005e 04E0     		b	.L23
 257              	.L24:
  45:.\main.c      ****         a_string[4]++;
 258              		.loc 1 45 0
 259 0060 0A39     		sub	r1, r1, #10
 260              	.LVL12:
 261 0062 09B2     		sxth	r1, r1
 262              	.LVL13:
  46:.\main.c      ****     }
 263              		.loc 1 46 0
 264 0064 0379     		ldrb	r3, [r0, #4]
 265 0066 0133     		add	r3, r3, #1
 266 0068 0371     		strb	r3, [r0, #4]
 267              	.L23:
  44:.\main.c      ****         a_number-=10;
 268              		.loc 1 44 0
 269 006a 0929     		cmp	r1, #9
 270 006c F8DC     		bgt	.L24
  48:.\main.c      ****     a_string[6]='\0';
 271              		.loc 1 48 0
 272 006e 4171     		strb	r1, [r0, #5]
  49:.\main.c      ****     
 273              		.loc 1 49 0
 274 0070 0023     		mov	r3, #0
 275 0072 8371     		strb	r3, [r0, #6]
ARM GAS  C:\Users\g\AppData\Local\Temp\ccSt88Qa.s 			page 12


 276              	.LVL14:
 277              	.LBB2:
  51:.\main.c      ****     
 278              		.loc 1 51 0
 279 0074 0133     		add	r3, r3, #1
 280 0076 04E0     		b	.L25
 281              	.LVL15:
 282              	.L26:
  51:.\main.c      ****     
 283              		.loc 1 51 0 is_stmt 0 discriminator 3
 284 0078 C118     		add	r1, r0, r3
 285 007a 0A78     		ldrb	r2, [r1]
 286 007c 3032     		add	r2, r2, #48
 287 007e 0A70     		strb	r2, [r1]
 288 0080 0133     		add	r3, r3, #1
 289              	.LVL16:
 290              	.L25:
  51:.\main.c      ****     
 291              		.loc 1 51 0 discriminator 1
 292 0082 052B     		cmp	r3, #5
 293 0084 F8DD     		ble	.L26
 294              	.LBE2:
  54:.\main.c      **** 
 295              		.loc 1 54 0 is_stmt 1
 296 0086 0120     		mov	r0, #1
 297              	.LVL17:
 298              		@ sp needed
 299 0088 7047     		bx	lr
 300              	.L28:
 301 008a C046     		.align	2
 302              	.L27:
 303 008c F0D8FFFF 		.word	-10000
 304 0090 0F270000 		.word	9999
 305 0094 18FCFFFF 		.word	-1000
 306 0098 E7030000 		.word	999
 307              		.cfi_endproc
 308              	.LFE34:
 309              		.size	fast_itoa, .-fast_itoa
 310              		.section	.text.main,"ax",%progbits
 311              		.align	2
 312              		.global	main
 313              		.code	16
 314              		.thumb_func
 315              		.type	main, %function
 316              	main:
 317              	.LFB35:
  70:.\main.c      **** 
 318              		.loc 1 70 0
 319              		.cfi_startproc
 320 0000 F0B5     		push	{r4, r5, r6, r7, lr}
 321              		.cfi_def_cfa_offset 20
 322              		.cfi_offset 4, -20
 323              		.cfi_offset 5, -16
 324              		.cfi_offset 6, -12
 325              		.cfi_offset 7, -8
 326              		.cfi_offset 14, -4
 327 0002 5F46     		mov	r7, fp
ARM GAS  C:\Users\g\AppData\Local\Temp\ccSt88Qa.s 			page 13


 328 0004 4646     		mov	r6, r8
 329 0006 C0B4     		push	{r6, r7}
 330              		.cfi_def_cfa_offset 28
 331              		.cfi_offset 8, -28
 332              		.cfi_offset 11, -24
 333 0008 89B0     		sub	sp, sp, #36
 334              		.cfi_def_cfa_offset 64
 335              	.LVL18:
  82:.\main.c      ****     char command_type='z';
 336              		.loc 1 82 0
 337 000a 0022     		mov	r2, #0
 338 000c 1723     		mov	r3, #23
 339 000e 02A9     		add	r1, sp, #8
 340 0010 8C46     		mov	ip, r1
 341 0012 6344     		add	r3, r3, ip
 342 0014 1A70     		strb	r2, [r3]
 343              	.LVL19:
  87:.\main.c      ****     //
 344              		.loc 1 87 0
 345 0016 0120     		mov	r0, #1
 346 0018 FFF7FEFF 		bl	vin_Write
 347              	.LVL20:
  89:.\main.c      ****     //192008N1
 348              		.loc 1 89 0
 349 001c FFF7FEFF 		bl	QDEC_Start
 350              	.LVL21:
  91:.\main.c      ****     //12-bit resolution. In phase with PWM_MOT
 351              		.loc 1 91 0
 352 0020 FFF7FEFF 		bl	UART_Start
 353              	.LVL22:
  93:.\main.c      ****     //UART transmit period timer (curently 100 transmissions per second)
 354              		.loc 1 93 0
 355 0024 FFF7FEFF 		bl	ADC_Start
 356              	.LVL23:
  95:.\main.c      ****     //Just the EEPROM...
 357              		.loc 1 95 0
 358 0028 FFF7FEFF 		bl	TX_SEND_Start
 359              	.LVL24:
  97:.\main.c      ****     //prepare gate driver for operation.  12-bit 6 kHz PWM
 360              		.loc 1 97 0
 361 002c FFF7FEFF 		bl	EEPROM_Start
 362              	.LVL25:
  99:.\main.c      ****     //UPWM_Start();
 363              		.loc 1 99 0
 364 0030 0120     		mov	r0, #1
 365 0032 FFF7FEFF 		bl	enable_gate_driver_Write
 366              	.LVL26:
 101:.\main.c      ****     WPWM_Start();
 367              		.loc 1 101 0
 368 0036 FFF7FEFF 		bl	VPWM_Start
 369              	.LVL27:
 102:.\main.c      ****     
 370              		.loc 1 102 0
 371 003a FFF7FEFF 		bl	WPWM_Start
 372              	.LVL28:
 105:.\main.c      ****     txISR_StartEx(transmitUpdate);
 373              		.loc 1 105 0
ARM GAS  C:\Users\g\AppData\Local\Temp\ccSt88Qa.s 			page 14


 374 003e B348     		ldr	r0, .L81
 375 0040 FFF7FEFF 		bl	rxISR_StartEx
 376              	.LVL29:
 106:.\main.c      ****     stepISR_StartEx(stepCount);
 377              		.loc 1 106 0
 378 0044 B248     		ldr	r0, .L81+4
 379 0046 FFF7FEFF 		bl	txISR_StartEx
 380              	.LVL30:
 107:.\main.c      ****     
 381              		.loc 1 107 0
 382 004a B248     		ldr	r0, .L81+8
 383 004c FFF7FEFF 		bl	stepISR_StartEx
 384              	.LVL31:
 119:.\main.c      ****     
 385              		.loc 1 119 0
 386              	@ 119 ".\main.c" 1
 387 0050 62B6     		CPSIE   i
 388              	@ 0 "" 2
  74:.\main.c      ****     
 389              		.loc 1 74 0
 390              		.code	16
 391 0052 0023     		mov	r3, #0
 392 0054 9B46     		mov	fp, r3
 393 0056 9846     		mov	r8, r3
  73:.\main.c      ****     uint8_t motor_shutdown=0, timeout_flag=0;
 394              		.loc 1 73 0
 395 0058 0024     		mov	r4, #0
  72:.\main.c      ****     int32_t output=0, process_variable=0, process_variable_prev=0;
 396              		.loc 1 72 0
 397 005a 0193     		str	r3, [sp, #4]
 398 005c 0025     		mov	r5, #0
 399 005e 0027     		mov	r7, #0
 400 0060 00E0     		b	.L30
 401              	.LVL32:
 402              	.L68:
  70:.\main.c      **** 
 403              		.loc 1 70 0
 404 0062 009C     		ldr	r4, [sp]
 405              	.LVL33:
 406              	.L30:
 125:.\main.c      ****             error_Write(0);
 407              		.loc 1 125 0
 408 0064 3AB2     		sxth	r2, r7
 409 0066 AC4B     		ldr	r3, .L81+12
 410 0068 1B78     		ldrb	r3, [r3]
 411 006a DBB2     		uxtb	r3, r3
 412 006c 9A42     		cmp	r2, r3
 413 006e 04DC     		bgt	.L31
 125:.\main.c      ****             error_Write(0);
 414              		.loc 1 125 0 is_stmt 0 discriminator 1
 415 0070 A94B     		ldr	r3, .L81+12
 416 0072 1B78     		ldrb	r3, [r3]
 417 0074 5B42     		neg	r3, r3
 418 0076 9A42     		cmp	r2, r3
 419 0078 06DA     		bge	.L32
 420              	.L31:
 126:.\main.c      ****             err_Write(1);
ARM GAS  C:\Users\g\AppData\Local\Temp\ccSt88Qa.s 			page 15


 421              		.loc 1 126 0 is_stmt 1
 422 007a 0020     		mov	r0, #0
 423 007c FFF7FEFF 		bl	error_Write
 424              	.LVL34:
 127:.\main.c      ****         }
 425              		.loc 1 127 0
 426 0080 0120     		mov	r0, #1
 427 0082 FFF7FEFF 		bl	err_Write
 428              	.LVL35:
 429 0086 1FE0     		b	.L33
 430              	.L32:
 131:.\main.c      ****                 timeout_counter++;
 431              		.loc 1 131 0
 432 0088 A44B     		ldr	r3, .L81+16
 433 008a 1B88     		ldrh	r3, [r3]
 434 008c 9BB2     		uxth	r3, r3
 435 008e A449     		ldr	r1, .L81+20
 436 0090 8B42     		cmp	r3, r1
 437 0092 08D8     		bhi	.L34
 132:.\main.c      ****                 timeout_flag=0;
 438              		.loc 1 132 0
 439 0094 A14A     		ldr	r2, .L81+16
 440 0096 1388     		ldrh	r3, [r2]
 441 0098 0133     		add	r3, r3, #1
 442 009a 9BB2     		uxth	r3, r3
 443 009c 1380     		strh	r3, [r2]
 444              	.LVL36:
 133:.\main.c      ****                 motor_shutdown=0;
 445              		.loc 1 133 0
 446 009e 0023     		mov	r3, #0
 447 00a0 9B46     		mov	fp, r3
 134:.\main.c      ****             }
 448              		.loc 1 134 0
 449 00a2 9846     		mov	r8, r3
 450 00a4 10E0     		b	.L33
 451              	.LVL37:
 452              	.L34:
 137:.\main.c      ****                     error_at_timeout=error;
 453              		.loc 1 137 0
 454 00a6 5B46     		mov	r3, fp
 455 00a8 002B     		cmp	r3, #0
 456 00aa 03D1     		bne	.L35
 138:.\main.c      ****                     timeout_flag=1;
 457              		.loc 1 138 0
 458 00ac 0197     		str	r7, [sp, #4]
 459              	.LVL38:
 139:.\main.c      ****                     motor_shutdown=1;
 460              		.loc 1 139 0
 461 00ae 0133     		add	r3, r3, #1
 462 00b0 9B46     		mov	fp, r3
 463              	.LVL39:
 140:.\main.c      ****                 }
 464              		.loc 1 140 0
 465 00b2 9846     		mov	r8, r3
 466              	.LVL40:
 467              	.L35:
 142:.\main.c      ****             }
ARM GAS  C:\Users\g\AppData\Local\Temp\ccSt88Qa.s 			page 16


 468              		.loc 1 142 0
 469 00b4 6B46     		mov	r3, sp
 470 00b6 0421     		mov	r1, #4
 471 00b8 5B5E     		ldrsh	r3, [r3, r1]
 472 00ba 9A1A     		sub	r2, r3, r2
 473 00bc 0232     		add	r2, r2, #2
 474 00be 042A     		cmp	r2, #4
 475 00c0 02D9     		bls	.L33
 142:.\main.c      ****             }
 476              		.loc 1 142 0 is_stmt 0 discriminator 1
 477 00c2 0022     		mov	r2, #0
 478 00c4 954B     		ldr	r3, .L81+16
 479 00c6 1A80     		strh	r2, [r3]
 480              	.LVL41:
 481              	.L33:
 148:.\main.c      ****         
 482              		.loc 1 148 0 is_stmt 1
 483 00c8 FFF7FEFF 		bl	fault_gate_driver_Read
 484              	.LVL42:
 151:.\main.c      ****             motor_shutdown=1;
 485              		.loc 1 151 0
 486 00cc FFF7FEFF 		bl	reset_Read
 487              	.LVL43:
 488 00d0 0028     		cmp	r0, #0
 489 00d2 01D1     		bne	.L36
 152:.\main.c      ****         }
 490              		.loc 1 152 0
 491 00d4 0123     		mov	r3, #1
 492 00d6 9846     		mov	r8, r3
 493              	.LVL44:
 494              	.L36:
 156:.\main.c      ****         duty_reduce+=((millivolts-(*eeprom_current_setting<<3))>>3);
 495              		.loc 1 156 0
 496 00d8 0020     		mov	r0, #0
 497 00da FFF7FEFF 		bl	ADC_GetResult16
 498              	.LVL45:
 157:.\main.c      ****         if(duty_reduce>DUTY_REDUCE_MAX) duty_reduce=DUTY_REDUCE_MAX;
 499              		.loc 1 157 0
 500 00de 8E4B     		ldr	r3, .L81+12
 501 00e0 5B78     		ldrb	r3, [r3, #1]
 163:.\main.c      ****         error=set_point-process_variable;
 502              		.loc 1 163 0
 503 00e2 FFF7FEFF 		bl	QDEC_GetCounter
 504              	.LVL46:
 505 00e6 0090     		str	r0, [sp]
 506              	.LVL47:
 164:.\main.c      ****         //calculate change in process variable to prevent derivative kickback
 507              		.loc 1 164 0
 508 00e8 8E4B     		ldr	r3, .L81+24
 509 00ea 1A68     		ldr	r2, [r3]
 510 00ec 83B2     		uxth	r3, r0
 511 00ee D21A     		sub	r2, r2, r3
 512 00f0 96B2     		uxth	r6, r2
 513 00f2 B7B2     		uxth	r7, r6
 514              	.LVL48:
 166:.\main.c      ****         process_variable_prev=process_variable;
 515              		.loc 1 166 0
ARM GAS  C:\Users\g\AppData\Local\Temp\ccSt88Qa.s 			page 17


 516 00f4 1C1B     		sub	r4, r3, r4
 517              	.LVL49:
 518 00f6 A0B2     		uxth	r0, r4
 519              	.LVL50:
 169:.\main.c      ****         //limit integral error
 520              		.loc 1 169 0
 521 00f8 7519     		add	r5, r6, r5
 522              	.LVL51:
 523 00fa ADB2     		uxth	r5, r5
 524              	.LVL52:
 171:.\main.c      ****         else if(error_integral<-ERROR_INTEGRAL_MAX) error_integral=-ERROR_INTEGRAL_MAX;
 525              		.loc 1 171 0
 526 00fc 2AB2     		sxth	r2, r5
 527 00fe 8A4B     		ldr	r3, .L81+28
 528 0100 9A42     		cmp	r2, r3
 529 0102 04DC     		bgt	.L71
 172:.\main.c      ****         
 530              		.loc 1 172 0
 531 0104 131E     		sub	r3, r2, #0
 532 0106 894A     		ldr	r2, .L81+32
 533 0108 9342     		cmp	r3, r2
 534 010a 02DB     		blt	.L72
 535 010c 02E0     		b	.L37
 536              	.L71:
 171:.\main.c      ****         else if(error_integral<-ERROR_INTEGRAL_MAX) error_integral=-ERROR_INTEGRAL_MAX;
 537              		.loc 1 171 0
 538 010e 864D     		ldr	r5, .L81+28
 539              	.LVL53:
 540 0110 00E0     		b	.L37
 541              	.LVL54:
 542              	.L72:
 172:.\main.c      ****         
 543              		.loc 1 172 0
 544 0112 874D     		ldr	r5, .L81+36
 545              	.LVL55:
 546              	.L37:
 175:.\main.c      ****         if(*eeprom_invert_motor) {
 547              		.loc 1 175 0
 548 0114 8049     		ldr	r1, .L81+12
 549 0116 8C78     		ldrb	r4, [r1, #2]
 550 0118 3BB2     		sxth	r3, r7
 551 011a 5C43     		mul	r4, r3
 552 011c CA78     		ldrb	r2, [r1, #3]
 553 011e 2BB2     		sxth	r3, r5
 554 0120 5343     		mul	r3, r2
 555 0122 9A12     		asr	r2, r3, #10
 556 0124 A318     		add	r3, r4, r2
 557 0126 0A79     		ldrb	r2, [r1, #4]
 558 0128 00B2     		sxth	r0, r0
 559 012a 5043     		mul	r0, r2
 560              	.LVL56:
 561 012c 1C1A     		sub	r4, r3, r0
 562              	.LVL57:
 176:.\main.c      ****             if(output>=0) {
 563              		.loc 1 176 0
 564 012e 4B79     		ldrb	r3, [r1, #5]
 565 0130 002B     		cmp	r3, #0
ARM GAS  C:\Users\g\AppData\Local\Temp\ccSt88Qa.s 			page 18


 566 0132 2CD0     		beq	.L38
 177:.\main.c      ****                 VPWM_WriteCompare(1);
 567              		.loc 1 177 0
 568 0134 002C     		cmp	r4, #0
 569 0136 14DB     		blt	.L39
 178:.\main.c      ****                 if(output>4095) output=4095;
 570              		.loc 1 178 0
 571 0138 0120     		mov	r0, #1
 572 013a FFF7FEFF 		bl	VPWM_WriteCompare
 573              	.LVL58:
 179:.\main.c      ****                 output-=duty_reduce;
 574              		.loc 1 179 0
 575 013e 7D4B     		ldr	r3, .L81+40
 576 0140 9C42     		cmp	r4, r3
 577 0142 00DD     		ble	.L40
 578 0144 1C1C     		mov	r4, r3
 579              	.LVL59:
 580              	.L40:
 181:.\main.c      ****                 if(motor_shutdown) WPWM_WriteCompare(1);
 581              		.loc 1 181 0
 582 0146 002C     		cmp	r4, #0
 583 0148 00DC     		bgt	.L41
 584 014a 0124     		mov	r4, #1
 585              	.LVL60:
 586              	.L41:
 182:.\main.c      ****                 else WPWM_WriteCompare(output);
 587              		.loc 1 182 0
 588 014c 4346     		mov	r3, r8
 589 014e 002B     		cmp	r3, #0
 590 0150 03D0     		beq	.L42
 182:.\main.c      ****                 else WPWM_WriteCompare(output);
 591              		.loc 1 182 0 is_stmt 0 discriminator 1
 592 0152 0120     		mov	r0, #1
 593 0154 FFF7FEFF 		bl	WPWM_WriteCompare
 594              	.LVL61:
 595 0158 45E0     		b	.L43
 596              	.L42:
 183:.\main.c      ****             }
 597              		.loc 1 183 0 is_stmt 1
 598 015a 201C     		mov	r0, r4
 599 015c FFF7FEFF 		bl	WPWM_WriteCompare
 600              	.LVL62:
 601 0160 41E0     		b	.L43
 602              	.L39:
 186:.\main.c      ****                 WPWM_WriteCompare(1);
 603              		.loc 1 186 0
 604 0162 6442     		neg	r4, r4
 605              	.LVL63:
 187:.\main.c      ****                 if(output>4095) output=4095;
 606              		.loc 1 187 0
 607 0164 0120     		mov	r0, #1
 608 0166 FFF7FEFF 		bl	WPWM_WriteCompare
 609              	.LVL64:
 188:.\main.c      ****                 output-=duty_reduce;
 610              		.loc 1 188 0
 611 016a 724B     		ldr	r3, .L81+40
 612 016c 9C42     		cmp	r4, r3
ARM GAS  C:\Users\g\AppData\Local\Temp\ccSt88Qa.s 			page 19


 613 016e 00DD     		ble	.L44
 614 0170 1C1C     		mov	r4, r3
 615              	.LVL65:
 616              	.L44:
 190:.\main.c      ****                 if(motor_shutdown) VPWM_WriteCompare(1);
 617              		.loc 1 190 0
 618 0172 002C     		cmp	r4, #0
 619 0174 00DC     		bgt	.L45
 620 0176 0124     		mov	r4, #1
 621              	.LVL66:
 622              	.L45:
 191:.\main.c      ****                 else VPWM_WriteCompare(output);
 623              		.loc 1 191 0
 624 0178 4346     		mov	r3, r8
 625 017a 002B     		cmp	r3, #0
 626 017c 03D0     		beq	.L46
 191:.\main.c      ****                 else VPWM_WriteCompare(output);
 627              		.loc 1 191 0 is_stmt 0 discriminator 1
 628 017e 0120     		mov	r0, #1
 629 0180 FFF7FEFF 		bl	VPWM_WriteCompare
 630              	.LVL67:
 631 0184 2FE0     		b	.L43
 632              	.L46:
 192:.\main.c      ****             }
 633              		.loc 1 192 0 is_stmt 1
 634 0186 201C     		mov	r0, r4
 635 0188 FFF7FEFF 		bl	VPWM_WriteCompare
 636              	.LVL68:
 637 018c 2BE0     		b	.L43
 638              	.L38:
 196:.\main.c      ****                 WPWM_WriteCompare(1);
 639              		.loc 1 196 0
 640 018e 002C     		cmp	r4, #0
 641 0190 14DB     		blt	.L47
 197:.\main.c      ****                 if(output>4095) output=4095;
 642              		.loc 1 197 0
 643 0192 0120     		mov	r0, #1
 644 0194 FFF7FEFF 		bl	WPWM_WriteCompare
 645              	.LVL69:
 198:.\main.c      ****                 output-=duty_reduce;
 646              		.loc 1 198 0
 647 0198 664B     		ldr	r3, .L81+40
 648 019a 9C42     		cmp	r4, r3
 649 019c 00DD     		ble	.L48
 650 019e 1C1C     		mov	r4, r3
 651              	.LVL70:
 652              	.L48:
 200:.\main.c      ****                 if(motor_shutdown) VPWM_WriteCompare(1);
 653              		.loc 1 200 0
 654 01a0 002C     		cmp	r4, #0
 655 01a2 00DC     		bgt	.L49
 656 01a4 0124     		mov	r4, #1
 657              	.LVL71:
 658              	.L49:
 201:.\main.c      ****                 else VPWM_WriteCompare(output);
 659              		.loc 1 201 0
 660 01a6 4346     		mov	r3, r8
ARM GAS  C:\Users\g\AppData\Local\Temp\ccSt88Qa.s 			page 20


 661 01a8 002B     		cmp	r3, #0
 662 01aa 03D0     		beq	.L50
 201:.\main.c      ****                 else VPWM_WriteCompare(output);
 663              		.loc 1 201 0 is_stmt 0 discriminator 1
 664 01ac 0120     		mov	r0, #1
 665 01ae FFF7FEFF 		bl	VPWM_WriteCompare
 666              	.LVL72:
 667 01b2 18E0     		b	.L43
 668              	.L50:
 202:.\main.c      ****             }
 669              		.loc 1 202 0 is_stmt 1
 670 01b4 201C     		mov	r0, r4
 671 01b6 FFF7FEFF 		bl	VPWM_WriteCompare
 672              	.LVL73:
 673 01ba 14E0     		b	.L43
 674              	.L47:
 205:.\main.c      ****                 VPWM_WriteCompare(1);
 675              		.loc 1 205 0
 676 01bc 6442     		neg	r4, r4
 677              	.LVL74:
 206:.\main.c      ****                 if(output>4095) output=4095;
 678              		.loc 1 206 0
 679 01be 0120     		mov	r0, #1
 680 01c0 FFF7FEFF 		bl	VPWM_WriteCompare
 681              	.LVL75:
 207:.\main.c      ****                 output-=duty_reduce;
 682              		.loc 1 207 0
 683 01c4 5B4B     		ldr	r3, .L81+40
 684 01c6 9C42     		cmp	r4, r3
 685 01c8 00DD     		ble	.L51
 686 01ca 1C1C     		mov	r4, r3
 687              	.LVL76:
 688              	.L51:
 209:.\main.c      ****                 if(motor_shutdown) WPWM_WriteCompare(1);
 689              		.loc 1 209 0
 690 01cc 002C     		cmp	r4, #0
 691 01ce 00DC     		bgt	.L52
 692 01d0 0124     		mov	r4, #1
 693              	.LVL77:
 694              	.L52:
 210:.\main.c      ****                 else WPWM_WriteCompare(output);
 695              		.loc 1 210 0
 696 01d2 4346     		mov	r3, r8
 697 01d4 002B     		cmp	r3, #0
 698 01d6 03D0     		beq	.L53
 210:.\main.c      ****                 else WPWM_WriteCompare(output);
 699              		.loc 1 210 0 is_stmt 0 discriminator 1
 700 01d8 0120     		mov	r0, #1
 701 01da FFF7FEFF 		bl	WPWM_WriteCompare
 702              	.LVL78:
 703 01de 02E0     		b	.L43
 704              	.L53:
 211:.\main.c      ****             }
 705              		.loc 1 211 0 is_stmt 1
 706 01e0 201C     		mov	r0, r4
 707 01e2 FFF7FEFF 		bl	WPWM_WriteCompare
 708              	.LVL79:
ARM GAS  C:\Users\g\AppData\Local\Temp\ccSt88Qa.s 			page 21


 709              	.L43:
 216:.\main.c      ****             command_type=command_parser[0];
 710              		.loc 1 216 0
 711 01e6 544B     		ldr	r3, .L81+44
 712 01e8 1B78     		ldrb	r3, [r3]
 713 01ea 012B     		cmp	r3, #1
 714 01ec 6AD1     		bne	.L54
 217:.\main.c      ****             for(int i=0; i<5; i++) command_local[i]=command_parser[i+1];
 715              		.loc 1 217 0
 716 01ee 534B     		ldr	r3, .L81+48
 717 01f0 1C78     		ldrb	r4, [r3]
 718              	.LVL80:
 719 01f2 E4B2     		uxtb	r4, r4
 720              	.LVL81:
 721              	.LBB3:
 218:.\main.c      ****             command_value=atoi(command_local);
 722              		.loc 1 218 0
 723 01f4 0023     		mov	r3, #0
 724 01f6 05E0     		b	.L55
 725              	.LVL82:
 726              	.L56:
 218:.\main.c      ****             command_value=atoi(command_local);
 727              		.loc 1 218 0 is_stmt 0 discriminator 3
 728 01f8 5A1C     		add	r2, r3, #1
 729 01fa 5049     		ldr	r1, .L81+48
 730 01fc 885C     		ldrb	r0, [r1, r2]
 731 01fe 06A9     		add	r1, sp, #24
 732 0200 C854     		strb	r0, [r1, r3]
 733              	.LVL83:
 734 0202 131C     		mov	r3, r2
 735              	.LVL84:
 736              	.L55:
 218:.\main.c      ****             command_value=atoi(command_local);
 737              		.loc 1 218 0 discriminator 1
 738 0204 042B     		cmp	r3, #4
 739 0206 F7DD     		ble	.L56
 740              	.LBE3:
 219:.\main.c      ****             switch(command_type) {
 741              		.loc 1 219 0 is_stmt 1
 742 0208 06A8     		add	r0, sp, #24
 743 020a FFF7FEFF 		bl	atoi
 744              	.LVL85:
 745 020e C0B2     		uxtb	r0, r0
 746 0210 1723     		mov	r3, #23
 747 0212 02AA     		add	r2, sp, #8
 748 0214 9446     		mov	ip, r2
 749 0216 6344     		add	r3, r3, ip
 750 0218 1870     		strb	r0, [r3]
 220:.\main.c      ****                 //PID coefficients
 751              		.loc 1 220 0
 752 021a 2B3C     		sub	r4, r4, #43
 753              	.LVL86:
 754 021c E3B2     		uxtb	r3, r4
 755 021e 4A2B     		cmp	r3, #74
 756 0220 4DD8     		bhi	.L57
 757 0222 9C00     		lsl	r4, r3, #2
 758              	.LVL87:
ARM GAS  C:\Users\g\AppData\Local\Temp\ccSt88Qa.s 			page 22


 759 0224 464B     		ldr	r3, .L81+52
 760 0226 1B59     		ldr	r3, [r3, r4]
 761 0228 9F46     		mov	pc, r3
 762              		.section	.rodata
 763              		.align	2
 764              	.L59:
 765 0000 B4020000 		.word	.L58
 766 0004 BE020000 		.word	.L57
 767 0008 BA020000 		.word	.L60
 768 000c BE020000 		.word	.L57
 769 0010 BE020000 		.word	.L57
 770 0014 BE020000 		.word	.L57
 771 0018 BE020000 		.word	.L57
 772 001c BE020000 		.word	.L57
 773 0020 BE020000 		.word	.L57
 774 0024 BE020000 		.word	.L57
 775 0028 BE020000 		.word	.L57
 776 002c BE020000 		.word	.L57
 777 0030 BE020000 		.word	.L57
 778 0034 BE020000 		.word	.L57
 779 0038 BE020000 		.word	.L57
 780 003c BE020000 		.word	.L57
 781 0040 BE020000 		.word	.L57
 782 0044 BE020000 		.word	.L57
 783 0048 BE020000 		.word	.L57
 784 004c BE020000 		.word	.L57
 785 0050 BE020000 		.word	.L57
 786 0054 BE020000 		.word	.L57
 787 0058 BE020000 		.word	.L57
 788 005c BE020000 		.word	.L57
 789 0060 BE020000 		.word	.L57
 790 0064 BE020000 		.word	.L57
 791 0068 BE020000 		.word	.L57
 792 006c BE020000 		.word	.L57
 793 0070 BE020000 		.word	.L57
 794 0074 BE020000 		.word	.L57
 795 0078 BE020000 		.word	.L57
 796 007c BE020000 		.word	.L57
 797 0080 BE020000 		.word	.L57
 798 0084 BE020000 		.word	.L57
 799 0088 BE020000 		.word	.L57
 800 008c BE020000 		.word	.L57
 801 0090 BE020000 		.word	.L57
 802 0094 BE020000 		.word	.L57
 803 0098 BE020000 		.word	.L57
 804 009c BE020000 		.word	.L57
 805 00a0 BE020000 		.word	.L57
 806 00a4 BE020000 		.word	.L57
 807 00a8 BE020000 		.word	.L57
 808 00ac BE020000 		.word	.L57
 809 00b0 BE020000 		.word	.L57
 810 00b4 BE020000 		.word	.L57
 811 00b8 BE020000 		.word	.L57
 812 00bc BE020000 		.word	.L57
 813 00c0 BE020000 		.word	.L57
 814 00c4 BE020000 		.word	.L57
 815 00c8 BE020000 		.word	.L57
ARM GAS  C:\Users\g\AppData\Local\Temp\ccSt88Qa.s 			page 23


 816 00cc BE020000 		.word	.L57
 817 00d0 BE020000 		.word	.L57
 818 00d4 BE020000 		.word	.L57
 819 00d8 BE020000 		.word	.L57
 820 00dc BE020000 		.word	.L57
 821 00e0 66020000 		.word	.L61
 822 00e4 52020000 		.word	.L62
 823 00e8 BE020000 		.word	.L57
 824 00ec 8E020000 		.word	.L63
 825 00f0 BE020000 		.word	.L57
 826 00f4 BE020000 		.word	.L57
 827 00f8 3E020000 		.word	.L64
 828 00fc BE020000 		.word	.L57
 829 0100 BE020000 		.word	.L57
 830 0104 BE020000 		.word	.L57
 831 0108 BE020000 		.word	.L57
 832 010c BE020000 		.word	.L57
 833 0110 BE020000 		.word	.L57
 834 0114 2A020000 		.word	.L65
 835 0118 BE020000 		.word	.L57
 836 011c 7A020000 		.word	.L66
 837 0120 BE020000 		.word	.L57
 838 0124 BE020000 		.word	.L57
 839 0128 A0020000 		.word	.L67
 840              		.section	.text.main
 841              	.L65:
 223:.\main.c      ****                 break;
 842              		.loc 1 223 0
 843 022a 1720     		mov	r0, #23
 844 022c 02AB     		add	r3, sp, #8
 845 022e 9C46     		mov	ip, r3
 846 0230 6044     		add	r0, r0, ip
 847 0232 3949     		ldr	r1, .L81+12
 848 0234 0231     		add	r1, r1, #2
 849 0236 0122     		mov	r2, #1
 850 0238 FFF7FEFF 		bl	EEPROM_Write
 851              	.LVL88:
 224:.\main.c      ****                 case 'i':
 852              		.loc 1 224 0
 853 023c 3FE0     		b	.L57
 854              	.L64:
 226:.\main.c      ****                 break;
 855              		.loc 1 226 0
 856 023e 1720     		mov	r0, #23
 857 0240 02AB     		add	r3, sp, #8
 858 0242 9C46     		mov	ip, r3
 859 0244 6044     		add	r0, r0, ip
 860 0246 3449     		ldr	r1, .L81+12
 861 0248 0331     		add	r1, r1, #3
 862 024a 0122     		mov	r2, #1
 863 024c FFF7FEFF 		bl	EEPROM_Write
 864              	.LVL89:
 227:.\main.c      ****                 case 'd':
 865              		.loc 1 227 0
 866 0250 35E0     		b	.L57
 867              	.L62:
 229:.\main.c      ****                 break;
ARM GAS  C:\Users\g\AppData\Local\Temp\ccSt88Qa.s 			page 24


 868              		.loc 1 229 0
 869 0252 1720     		mov	r0, #23
 870 0254 02AB     		add	r3, sp, #8
 871 0256 9C46     		mov	ip, r3
 872 0258 6044     		add	r0, r0, ip
 873 025a 2F49     		ldr	r1, .L81+12
 874 025c 0431     		add	r1, r1, #4
 875 025e 0122     		mov	r2, #1
 876 0260 FFF7FEFF 		bl	EEPROM_Write
 877              	.LVL90:
 230:.\main.c      ****                 //currernt limit value
 878              		.loc 1 230 0
 879 0264 2BE0     		b	.L57
 880              	.L61:
 233:.\main.c      ****                 break;
 881              		.loc 1 233 0
 882 0266 1720     		mov	r0, #23
 883 0268 02AB     		add	r3, sp, #8
 884 026a 9C46     		mov	ip, r3
 885 026c 6044     		add	r0, r0, ip
 886 026e 2A49     		ldr	r1, .L81+12
 887 0270 0131     		add	r1, r1, #1
 888 0272 0122     		mov	r2, #1
 889 0274 FFF7FEFF 		bl	EEPROM_Write
 890              	.LVL91:
 234:.\main.c      ****                 //motor direction of rotation flag
 891              		.loc 1 234 0
 892 0278 21E0     		b	.L57
 893              	.L66:
 237:.\main.c      ****                 break;
 894              		.loc 1 237 0
 895 027a 1720     		mov	r0, #23
 896 027c 02AB     		add	r3, sp, #8
 897 027e 9C46     		mov	ip, r3
 898 0280 6044     		add	r0, r0, ip
 899 0282 2549     		ldr	r1, .L81+12
 900 0284 0531     		add	r1, r1, #5
 901 0286 0122     		mov	r2, #1
 902 0288 FFF7FEFF 		bl	EEPROM_Write
 903              	.LVL92:
 238:.\main.c      ****                 //maximum allowable following error
 904              		.loc 1 238 0
 905 028c 17E0     		b	.L57
 906              	.L63:
 241:.\main.c      ****                 break;
 907              		.loc 1 241 0
 908 028e 1720     		mov	r0, #23
 909 0290 02AB     		add	r3, sp, #8
 910 0292 9C46     		mov	ip, r3
 911 0294 6044     		add	r0, r0, ip
 912 0296 2049     		ldr	r1, .L81+12
 913 0298 0122     		mov	r2, #1
 914 029a FFF7FEFF 		bl	EEPROM_Write
 915              	.LVL93:
 242:.\main.c      ****                 //transmit diagnostic data flag
 916              		.loc 1 242 0
 917 029e 0EE0     		b	.L57
ARM GAS  C:\Users\g\AppData\Local\Temp\ccSt88Qa.s 			page 25


 918              	.L67:
 245:.\main.c      ****                 break;
 919              		.loc 1 245 0
 920 02a0 1720     		mov	r0, #23
 921 02a2 02AB     		add	r3, sp, #8
 922 02a4 9C46     		mov	ip, r3
 923 02a6 6044     		add	r0, r0, ip
 924 02a8 1B49     		ldr	r1, .L81+12
 925 02aa 0631     		add	r1, r1, #6
 926 02ac 0122     		mov	r2, #1
 927 02ae FFF7FEFF 		bl	EEPROM_Write
 928              	.LVL94:
 246:.\main.c      ****                 //move motor
 929              		.loc 1 246 0
 930 02b2 04E0     		b	.L57
 931              	.L58:
 249:.\main.c      ****                 break;
 932              		.loc 1 249 0
 933 02b4 3318     		add	r3, r6, r0
 934 02b6 9FB2     		uxth	r7, r3
 935              	.LVL95:
 250:.\main.c      ****                 case '-':
 936              		.loc 1 250 0
 937 02b8 01E0     		b	.L57
 938              	.L60:
 252:.\main.c      ****                 break;
 939              		.loc 1 252 0
 940 02ba 331A     		sub	r3, r6, r0
 941 02bc 9FB2     		uxth	r7, r3
 942              	.LVL96:
 943              	.L57:
 255:.\main.c      ****         }
 944              		.loc 1 255 0
 945 02be 0022     		mov	r2, #0
 946 02c0 1D4B     		ldr	r3, .L81+44
 947 02c2 1A70     		strb	r2, [r3]
 948              	.L54:
 260:.\main.c      ****         
 949              		.loc 1 260 0
 950 02c4 391C     		mov	r1, r7
 951 02c6 9131     		add	r1, r1, #145
 952 02c8 FF31     		add	r1, r1, #255
 953 02ca 09B2     		sxth	r1, r1
 954 02cc 02A8     		add	r0, sp, #8
 955 02ce FFF7FEFF 		bl	fast_itoa
 956              	.LVL97:
 264:.\main.c      ****             if(*eeprom_uart_data) {
 957              		.loc 1 264 0
 958 02d2 1C4B     		ldr	r3, .L81+56
 959 02d4 1B78     		ldrb	r3, [r3]
 960 02d6 002B     		cmp	r3, #0
 961 02d8 00D1     		bne	.LCB912
 962 02da C2E6     		b	.L68	@long jump
 963              	.LCB912:
 265:.\main.c      ****                 UART_UartPutChar('$');
 964              		.loc 1 265 0
 965 02dc 0E4B     		ldr	r3, .L81+12
ARM GAS  C:\Users\g\AppData\Local\Temp\ccSt88Qa.s 			page 26


 966 02de 9B79     		ldrb	r3, [r3, #6]
 967 02e0 002B     		cmp	r3, #0
 968 02e2 00D1     		bne	.LCB918
 969 02e4 BDE6     		b	.L68	@long jump
 970              	.LCB918:
 266:.\main.c      ****                 //transmit error value
 971              		.loc 1 266 0
 972 02e6 2420     		mov	r0, #36
 973 02e8 FFF7FEFF 		bl	UART_SpiUartWriteTxData
 974              	.LVL98:
 268:.\main.c      ****                 UART_UartPutChar(' ');
 975              		.loc 1 268 0
 976 02ec 02A8     		add	r0, sp, #8
 977 02ee FFF7FEFF 		bl	UART_UartPutString
 978              	.LVL99:
 269:.\main.c      ****                 //transmit current value
 979              		.loc 1 269 0
 980 02f2 2020     		mov	r0, #32
 981 02f4 FFF7FEFF 		bl	UART_SpiUartWriteTxData
 982              	.LVL100:
 271:.\main.c      ****                 UART_UartPutChar(';');
 983              		.loc 1 271 0
 984 02f8 04A8     		add	r0, sp, #16
 985 02fa FFF7FEFF 		bl	UART_UartPutString
 986              	.LVL101:
 272:.\main.c      ****                 transmit_ready=0;
 987              		.loc 1 272 0
 988 02fe 3B20     		mov	r0, #59
 989 0300 FFF7FEFF 		bl	UART_SpiUartWriteTxData
 990              	.LVL102:
 273:.\main.c      ****             }
 991              		.loc 1 273 0
 992 0304 0022     		mov	r2, #0
 993 0306 0F4B     		ldr	r3, .L81+56
 994 0308 1A70     		strb	r2, [r3]
 995 030a AAE6     		b	.L68
 996              	.L82:
 997              		.align	2
 998              	.L81:
 999 030c 00000000 		.word	uartReceive
 1000 0310 00000000 		.word	transmitUpdate
 1001 0314 00000000 		.word	stepCount
 1002 0318 2C010000 		.word	.LANCHOR0
 1003 031c 00000000 		.word	timeout_counter
 1004 0320 1F4E0000 		.word	19999
 1005 0324 00000000 		.word	set_point
 1006 0328 10270000 		.word	10000
 1007 032c F0D8FFFF 		.word	-10000
 1008 0330 F0D80000 		.word	55536
 1009 0334 FF0F0000 		.word	4095
 1010 0338 00000000 		.word	command_ready
 1011 033c 00000000 		.word	command_parser
 1012 0340 00000000 		.word	.L59
 1013 0344 00000000 		.word	transmit_ready
 1014              		.cfi_endproc
 1015              	.LFE35:
 1016              		.size	main, .-main
ARM GAS  C:\Users\g\AppData\Local\Temp\ccSt88Qa.s 			page 27


 1017              		.comm	command_parser,6,4
 1018              		.comm	transmit_ready,1,1
 1019              		.comm	command_index,1,1
 1020              		.comm	command_ready,1,1
 1021              		.comm	timeout_counter,2,2
 1022              		.comm	set_point,4,4
 1023              		.section	.rodata
 1024              		.set	.LANCHOR0,. + 0
 1025              		.type	ferror.6734, %object
 1026              		.size	ferror.6734, 1
 1027              	ferror.6734:
 1028 012c FF       		.byte	-1
 1029              		.type	current_setting.6732, %object
 1030              		.size	current_setting.6732, 1
 1031              	current_setting.6732:
 1032 012d FF       		.byte	-1
 1033              		.type	kp.6729, %object
 1034              		.size	kp.6729, 1
 1035              	kp.6729:
 1036 012e 1E       		.byte	30
 1037              		.type	ki.6730, %object
 1038              		.size	ki.6730, 1
 1039              	ki.6730:
 1040 012f 05       		.byte	5
 1041              		.type	kd.6731, %object
 1042              		.size	kd.6731, 1
 1043              	kd.6731:
 1044 0130 00       		.space	1
 1045              		.type	invert_motor.6733, %object
 1046              		.size	invert_motor.6733, 1
 1047              	invert_motor.6733:
 1048 0131 01       		.byte	1
 1049              		.type	uart_data.6735, %object
 1050              		.size	uart_data.6735, 1
 1051              	uart_data.6735:
 1052 0132 01       		.byte	1
 1053 0133 00       		.text
 1054              	.Letext0:
 1055              		.file 2 "c:\\program files (x86)\\cypress\\psoc creator\\3.3\\psoc creator\\import\\gnu\\arm\\4.9.
 1056              		.file 3 "c:\\program files (x86)\\cypress\\psoc creator\\3.3\\psoc creator\\import\\gnu\\arm\\4.9.
 1057              		.file 4 "Generated_Source\\PSoC4/cytypes.h"
 1058              		.file 5 "Generated_Source\\PSoC4/direction.h"
 1059              		.file 6 "Generated_Source\\PSoC4/step.h"
 1060              		.file 7 "Generated_Source\\PSoC4/UART_SPI_UART.h"
 1061              		.file 8 "Generated_Source\\PSoC4/QDEC.h"
 1062              		.file 9 "Generated_Source\\PSoC4/UART.h"
 1063              		.file 10 "Generated_Source\\PSoC4/ADC.h"
 1064              		.file 11 "Generated_Source\\PSoC4/TX_SEND.h"
 1065              		.file 12 "Generated_Source\\PSoC4/EEPROM.h"
 1066              		.file 13 "Generated_Source\\PSoC4/vin.h"
 1067              		.file 14 "Generated_Source\\PSoC4/enable_gate_driver.h"
 1068              		.file 15 "Generated_Source\\PSoC4/VPWM.h"
 1069              		.file 16 "Generated_Source\\PSoC4/WPWM.h"
 1070              		.file 17 "Generated_Source\\PSoC4/rxISR.h"
 1071              		.file 18 "Generated_Source\\PSoC4/txISR.h"
 1072              		.file 19 "Generated_Source\\PSoC4/stepISR.h"
 1073              		.file 20 "Generated_Source\\PSoC4/error.h"
ARM GAS  C:\Users\g\AppData\Local\Temp\ccSt88Qa.s 			page 28


 1074              		.file 21 "Generated_Source\\PSoC4/err.h"
 1075              		.file 22 "Generated_Source\\PSoC4/fault_gate_driver.h"
 1076              		.file 23 "Generated_Source\\PSoC4/reset.h"
 1077              		.file 24 "c:\\program files (x86)\\cypress\\psoc creator\\3.3\\psoc creator\\import\\gnu\\arm\\4.9