ARM GAS  C:\Users\g\AppData\Local\Temp\ccccBdl8.s 			page 1


   1              		.cpu cortex-m0
   2              		.fpu softvfp
   3              		.eabi_attribute 20, 1
   4              		.eabi_attribute 21, 1
   5              		.eabi_attribute 23, 3
   6              		.eabi_attribute 24, 1
   7              		.eabi_attribute 25, 1
   8              		.eabi_attribute 26, 1
   9              		.eabi_attribute 30, 1
  10              		.eabi_attribute 34, 0
  11              		.eabi_attribute 18, 4
  12              		.code	16
  13              		.file	"QDEC.c"
  14              		.text
  15              	.Ltext0:
  16              		.cfi_sections	.debug_frame
  17              		.section	.text.QDEC_Init,"ax",%progbits
  18              		.align	2
  19              		.global	QDEC_Init
  20              		.code	16
  21              		.thumb_func
  22              		.type	QDEC_Init, %function
  23              	QDEC_Init:
  24              	.LFB0:
  25              		.file 1 ".\\Generated_Source\\PSoC4\\QDEC.c"
   1:.\Generated_Source\PSoC4/QDEC.c **** /*******************************************************************************
   2:.\Generated_Source\PSoC4/QDEC.c **** * File Name: QDEC.c  
   3:.\Generated_Source\PSoC4/QDEC.c **** * Version 3.0
   4:.\Generated_Source\PSoC4/QDEC.c **** *
   5:.\Generated_Source\PSoC4/QDEC.c **** * Description:
   6:.\Generated_Source\PSoC4/QDEC.c **** *  This file provides the source code to the API for the Quadrature Decoder
   7:.\Generated_Source\PSoC4/QDEC.c **** *  component.
   8:.\Generated_Source\PSoC4/QDEC.c **** *
   9:.\Generated_Source\PSoC4/QDEC.c **** * Note:
  10:.\Generated_Source\PSoC4/QDEC.c **** *  None.
  11:.\Generated_Source\PSoC4/QDEC.c **** *   
  12:.\Generated_Source\PSoC4/QDEC.c **** ********************************************************************************
  13:.\Generated_Source\PSoC4/QDEC.c **** * Copyright 2008-2014, Cypress Semiconductor Corporation.  All rights reserved.
  14:.\Generated_Source\PSoC4/QDEC.c **** * You may use this file only in accordance with the license, terms, conditions, 
  15:.\Generated_Source\PSoC4/QDEC.c **** * disclaimers, and limitations in the end user license agreement accompanying 
  16:.\Generated_Source\PSoC4/QDEC.c **** * the software package with which this file was provided.
  17:.\Generated_Source\PSoC4/QDEC.c **** *******************************************************************************/
  18:.\Generated_Source\PSoC4/QDEC.c **** 
  19:.\Generated_Source\PSoC4/QDEC.c **** #include "QDEC.h"
  20:.\Generated_Source\PSoC4/QDEC.c **** 
  21:.\Generated_Source\PSoC4/QDEC.c **** #if (QDEC_COUNTER_SIZE == QDEC_COUNTER_SIZE_32_BIT)
  22:.\Generated_Source\PSoC4/QDEC.c ****     #include "QDEC_PVT.h"
  23:.\Generated_Source\PSoC4/QDEC.c **** #endif /* QDEC_COUNTER_SIZE == QDEC_COUNTER_SIZE_32_BIT */
  24:.\Generated_Source\PSoC4/QDEC.c **** 
  25:.\Generated_Source\PSoC4/QDEC.c **** uint8 QDEC_initVar = 0u;
  26:.\Generated_Source\PSoC4/QDEC.c **** 
  27:.\Generated_Source\PSoC4/QDEC.c **** 
  28:.\Generated_Source\PSoC4/QDEC.c **** /*******************************************************************************
  29:.\Generated_Source\PSoC4/QDEC.c **** * Function Name: QDEC_Init
  30:.\Generated_Source\PSoC4/QDEC.c **** ********************************************************************************
  31:.\Generated_Source\PSoC4/QDEC.c **** *
  32:.\Generated_Source\PSoC4/QDEC.c **** * Summary:
ARM GAS  C:\Users\g\AppData\Local\Temp\ccccBdl8.s 			page 2


  33:.\Generated_Source\PSoC4/QDEC.c **** *  Inits/Restores default QuadDec configuration provided with customizer.
  34:.\Generated_Source\PSoC4/QDEC.c **** *
  35:.\Generated_Source\PSoC4/QDEC.c **** * Parameters:
  36:.\Generated_Source\PSoC4/QDEC.c **** *  None.
  37:.\Generated_Source\PSoC4/QDEC.c **** *
  38:.\Generated_Source\PSoC4/QDEC.c **** * Return:
  39:.\Generated_Source\PSoC4/QDEC.c **** *  None.
  40:.\Generated_Source\PSoC4/QDEC.c **** *
  41:.\Generated_Source\PSoC4/QDEC.c **** *******************************************************************************/
  42:.\Generated_Source\PSoC4/QDEC.c **** void QDEC_Init(void) 
  43:.\Generated_Source\PSoC4/QDEC.c **** {
  26              		.loc 1 43 0
  27              		.cfi_startproc
  28 0000 08B5     		push	{r3, lr}
  29              		.cfi_def_cfa_offset 8
  30              		.cfi_offset 3, -8
  31              		.cfi_offset 14, -4
  44:.\Generated_Source\PSoC4/QDEC.c ****     #if (QDEC_COUNTER_SIZE == QDEC_COUNTER_SIZE_32_BIT)
  45:.\Generated_Source\PSoC4/QDEC.c ****         /* Disable Interrupt. */
  46:.\Generated_Source\PSoC4/QDEC.c ****         CyIntDisable(QDEC_ISR_NUMBER);
  32              		.loc 1 46 0
  33 0002 0020     		mov	r0, #0
  34 0004 FFF7FEFF 		bl	CyIntDisable
  35              	.LVL0:
  47:.\Generated_Source\PSoC4/QDEC.c ****         /* Set the ISR to point to the QDEC_isr Interrupt. */
  48:.\Generated_Source\PSoC4/QDEC.c ****         (void) CyIntSetVector(QDEC_ISR_NUMBER, & QDEC_ISR);
  36              		.loc 1 48 0
  37 0008 0020     		mov	r0, #0
  38 000a 0449     		ldr	r1, .L2
  39 000c FFF7FEFF 		bl	CyIntSetVector
  40              	.LVL1:
  49:.\Generated_Source\PSoC4/QDEC.c ****         /* Set the priority. */
  50:.\Generated_Source\PSoC4/QDEC.c ****         CyIntSetPriority(QDEC_ISR_NUMBER, QDEC_ISR_PRIORITY);
  41              		.loc 1 50 0
  42 0010 0020     		mov	r0, #0
  43 0012 0321     		mov	r1, #3
  44 0014 FFF7FEFF 		bl	CyIntSetPriority
  45              	.LVL2:
  51:.\Generated_Source\PSoC4/QDEC.c ****     #endif /* QDEC_COUNTER_SIZE == QDEC_COUNTER_SIZE_32_BIT */
  52:.\Generated_Source\PSoC4/QDEC.c **** }
  46              		.loc 1 52 0
  47              		@ sp needed
  48 0018 08BD     		pop	{r3, pc}
  49              	.L3:
  50 001a C046     		.align	2
  51              	.L2:
  52 001c 00000000 		.word	QDEC_ISR
  53              		.cfi_endproc
  54              	.LFE0:
  55              		.size	QDEC_Init, .-QDEC_Init
  56              		.section	.text.QDEC_Stop,"ax",%progbits
  57              		.align	2
  58              		.global	QDEC_Stop
  59              		.code	16
  60              		.thumb_func
  61              		.type	QDEC_Stop, %function
  62              	QDEC_Stop:
ARM GAS  C:\Users\g\AppData\Local\Temp\ccccBdl8.s 			page 3


  63              	.LFB3:
  53:.\Generated_Source\PSoC4/QDEC.c **** 
  54:.\Generated_Source\PSoC4/QDEC.c **** 
  55:.\Generated_Source\PSoC4/QDEC.c **** /*******************************************************************************
  56:.\Generated_Source\PSoC4/QDEC.c **** * Function Name: QDEC_Enable
  57:.\Generated_Source\PSoC4/QDEC.c **** ********************************************************************************
  58:.\Generated_Source\PSoC4/QDEC.c **** *
  59:.\Generated_Source\PSoC4/QDEC.c **** * Summary:
  60:.\Generated_Source\PSoC4/QDEC.c **** *  This function enable interrupts from Component and also enable Component's
  61:.\Generated_Source\PSoC4/QDEC.c **** *  ISR in case of 32-bit counter.
  62:.\Generated_Source\PSoC4/QDEC.c **** *
  63:.\Generated_Source\PSoC4/QDEC.c **** * Parameters:
  64:.\Generated_Source\PSoC4/QDEC.c **** *  None.
  65:.\Generated_Source\PSoC4/QDEC.c **** *
  66:.\Generated_Source\PSoC4/QDEC.c **** * Return:
  67:.\Generated_Source\PSoC4/QDEC.c **** *  None.
  68:.\Generated_Source\PSoC4/QDEC.c **** *
  69:.\Generated_Source\PSoC4/QDEC.c **** *******************************************************************************/
  70:.\Generated_Source\PSoC4/QDEC.c **** void QDEC_Enable(void) 
  71:.\Generated_Source\PSoC4/QDEC.c **** {
  72:.\Generated_Source\PSoC4/QDEC.c ****     uint8 enableInterrupts;
  73:.\Generated_Source\PSoC4/QDEC.c **** 
  74:.\Generated_Source\PSoC4/QDEC.c ****     QDEC_SetInterruptMask(QDEC_INIT_INT_MASK);
  75:.\Generated_Source\PSoC4/QDEC.c **** 
  76:.\Generated_Source\PSoC4/QDEC.c ****     /* Clear pending interrupts. */
  77:.\Generated_Source\PSoC4/QDEC.c ****     (void) QDEC_GetEvents();
  78:.\Generated_Source\PSoC4/QDEC.c ****     
  79:.\Generated_Source\PSoC4/QDEC.c ****     enableInterrupts = CyEnterCriticalSection();
  80:.\Generated_Source\PSoC4/QDEC.c **** 
  81:.\Generated_Source\PSoC4/QDEC.c ****     /* Enable interrupts from Statusi register */
  82:.\Generated_Source\PSoC4/QDEC.c ****     QDEC_SR_AUX_CONTROL |= QDEC_INTERRUPTS_ENABLE;
  83:.\Generated_Source\PSoC4/QDEC.c **** 
  84:.\Generated_Source\PSoC4/QDEC.c ****     CyExitCriticalSection(enableInterrupts);        
  85:.\Generated_Source\PSoC4/QDEC.c **** 
  86:.\Generated_Source\PSoC4/QDEC.c ****     #if (QDEC_COUNTER_SIZE == QDEC_COUNTER_SIZE_32_BIT)
  87:.\Generated_Source\PSoC4/QDEC.c ****         /* Enable Component interrupts */
  88:.\Generated_Source\PSoC4/QDEC.c ****         CyIntEnable(QDEC_ISR_NUMBER);
  89:.\Generated_Source\PSoC4/QDEC.c ****     #endif /* QDEC_COUNTER_SIZE == QDEC_COUNTER_SIZE_32_BIT */
  90:.\Generated_Source\PSoC4/QDEC.c **** }
  91:.\Generated_Source\PSoC4/QDEC.c **** 
  92:.\Generated_Source\PSoC4/QDEC.c **** 
  93:.\Generated_Source\PSoC4/QDEC.c **** /*******************************************************************************
  94:.\Generated_Source\PSoC4/QDEC.c **** * Function Name: QDEC_Start
  95:.\Generated_Source\PSoC4/QDEC.c **** ********************************************************************************
  96:.\Generated_Source\PSoC4/QDEC.c **** *
  97:.\Generated_Source\PSoC4/QDEC.c **** * Summary:
  98:.\Generated_Source\PSoC4/QDEC.c **** *  Initializes UDBs and other relevant hardware.
  99:.\Generated_Source\PSoC4/QDEC.c **** *  Resets counter, enables or disables all relevant interrupts.
 100:.\Generated_Source\PSoC4/QDEC.c **** *  Starts monitoring the inputs and counting.
 101:.\Generated_Source\PSoC4/QDEC.c **** *
 102:.\Generated_Source\PSoC4/QDEC.c **** * Parameters:
 103:.\Generated_Source\PSoC4/QDEC.c **** *  None.
 104:.\Generated_Source\PSoC4/QDEC.c **** *
 105:.\Generated_Source\PSoC4/QDEC.c **** * Return:
 106:.\Generated_Source\PSoC4/QDEC.c **** *  None.
 107:.\Generated_Source\PSoC4/QDEC.c **** *
 108:.\Generated_Source\PSoC4/QDEC.c **** * Global variables:
ARM GAS  C:\Users\g\AppData\Local\Temp\ccccBdl8.s 			page 4


 109:.\Generated_Source\PSoC4/QDEC.c **** *  QDEC_initVar - used to check initial configuration, modified on
 110:.\Generated_Source\PSoC4/QDEC.c **** *  first function call.
 111:.\Generated_Source\PSoC4/QDEC.c **** *
 112:.\Generated_Source\PSoC4/QDEC.c **** * Reentrant:
 113:.\Generated_Source\PSoC4/QDEC.c **** *  No.
 114:.\Generated_Source\PSoC4/QDEC.c **** *
 115:.\Generated_Source\PSoC4/QDEC.c **** *******************************************************************************/
 116:.\Generated_Source\PSoC4/QDEC.c **** void QDEC_Start(void) 
 117:.\Generated_Source\PSoC4/QDEC.c **** {
 118:.\Generated_Source\PSoC4/QDEC.c ****     #if (QDEC_COUNTER_SIZE == QDEC_COUNTER_SIZE_8_BIT)
 119:.\Generated_Source\PSoC4/QDEC.c ****         QDEC_Cnt8_Start();
 120:.\Generated_Source\PSoC4/QDEC.c ****         QDEC_Cnt8_WriteCounter(QDEC_COUNTER_INIT_VALUE);
 121:.\Generated_Source\PSoC4/QDEC.c ****     #else
 122:.\Generated_Source\PSoC4/QDEC.c ****         /* (QDEC_COUNTER_SIZE == QDEC_COUNTER_SIZE_16_BIT) || 
 123:.\Generated_Source\PSoC4/QDEC.c ****         *  (QDEC_COUNTER_SIZE == QDEC_COUNTER_SIZE_32_BIT) 
 124:.\Generated_Source\PSoC4/QDEC.c ****         */
 125:.\Generated_Source\PSoC4/QDEC.c ****         QDEC_Cnt16_Start();
 126:.\Generated_Source\PSoC4/QDEC.c ****         QDEC_Cnt16_WriteCounter(QDEC_COUNTER_INIT_VALUE);
 127:.\Generated_Source\PSoC4/QDEC.c ****     #endif /* QDEC_COUNTER_SIZE == QDEC_COUNTER_SIZE_8_BIT */
 128:.\Generated_Source\PSoC4/QDEC.c ****     
 129:.\Generated_Source\PSoC4/QDEC.c ****     #if (QDEC_COUNTER_SIZE == QDEC_COUNTER_SIZE_32_BIT)        
 130:.\Generated_Source\PSoC4/QDEC.c ****        QDEC_count32SoftPart = 0;
 131:.\Generated_Source\PSoC4/QDEC.c ****     #endif /* QDEC_COUNTER_SIZE == QDEC_COUNTER_SIZE_32_BIT */
 132:.\Generated_Source\PSoC4/QDEC.c **** 
 133:.\Generated_Source\PSoC4/QDEC.c ****     if (QDEC_initVar == 0u)
 134:.\Generated_Source\PSoC4/QDEC.c ****     {
 135:.\Generated_Source\PSoC4/QDEC.c ****         QDEC_Init();
 136:.\Generated_Source\PSoC4/QDEC.c ****         QDEC_initVar = 1u;
 137:.\Generated_Source\PSoC4/QDEC.c ****     }
 138:.\Generated_Source\PSoC4/QDEC.c **** 
 139:.\Generated_Source\PSoC4/QDEC.c ****     QDEC_Enable();
 140:.\Generated_Source\PSoC4/QDEC.c **** }
 141:.\Generated_Source\PSoC4/QDEC.c **** 
 142:.\Generated_Source\PSoC4/QDEC.c **** 
 143:.\Generated_Source\PSoC4/QDEC.c **** /*******************************************************************************
 144:.\Generated_Source\PSoC4/QDEC.c **** * Function Name: QDEC_Stop
 145:.\Generated_Source\PSoC4/QDEC.c **** ********************************************************************************
 146:.\Generated_Source\PSoC4/QDEC.c **** *
 147:.\Generated_Source\PSoC4/QDEC.c **** * Summary:
 148:.\Generated_Source\PSoC4/QDEC.c **** *  Turns off UDBs and other relevant hardware.
 149:.\Generated_Source\PSoC4/QDEC.c **** *
 150:.\Generated_Source\PSoC4/QDEC.c **** * Parameters:
 151:.\Generated_Source\PSoC4/QDEC.c **** *  None.
 152:.\Generated_Source\PSoC4/QDEC.c **** *
 153:.\Generated_Source\PSoC4/QDEC.c **** * Return:
 154:.\Generated_Source\PSoC4/QDEC.c **** *  None.
 155:.\Generated_Source\PSoC4/QDEC.c **** *
 156:.\Generated_Source\PSoC4/QDEC.c **** *******************************************************************************/
 157:.\Generated_Source\PSoC4/QDEC.c **** void QDEC_Stop(void) 
 158:.\Generated_Source\PSoC4/QDEC.c **** {
  64              		.loc 1 158 0
  65              		.cfi_startproc
  66 0000 08B5     		push	{r3, lr}
  67              		.cfi_def_cfa_offset 8
  68              		.cfi_offset 3, -8
  69              		.cfi_offset 14, -4
 159:.\Generated_Source\PSoC4/QDEC.c ****     uint8 enableInterrupts;
ARM GAS  C:\Users\g\AppData\Local\Temp\ccccBdl8.s 			page 5


 160:.\Generated_Source\PSoC4/QDEC.c **** 
 161:.\Generated_Source\PSoC4/QDEC.c ****     #if (QDEC_COUNTER_SIZE == QDEC_COUNTER_SIZE_8_BIT)
 162:.\Generated_Source\PSoC4/QDEC.c ****         QDEC_Cnt8_Stop();
 163:.\Generated_Source\PSoC4/QDEC.c ****     #else 
 164:.\Generated_Source\PSoC4/QDEC.c ****         /* (QDEC_COUNTER_SIZE == QDEC_COUNTER_SIZE_16_BIT) ||
 165:.\Generated_Source\PSoC4/QDEC.c ****         *  (QDEC_COUNTER_SIZE == QDEC_COUNTER_SIZE_32_BIT)
 166:.\Generated_Source\PSoC4/QDEC.c ****         */
 167:.\Generated_Source\PSoC4/QDEC.c ****         QDEC_Cnt16_Stop();    /* counter disable */
  70              		.loc 1 167 0
  71 0002 FFF7FEFF 		bl	QDEC_Cnt16_Stop
  72              	.LVL3:
 168:.\Generated_Source\PSoC4/QDEC.c ****     #endif /* (QDEC_COUNTER_SIZE == QDEC_COUNTER_SIZE_8_BIT) */
 169:.\Generated_Source\PSoC4/QDEC.c ****  
 170:.\Generated_Source\PSoC4/QDEC.c ****     enableInterrupts = CyEnterCriticalSection();
  73              		.loc 1 170 0
  74 0006 FFF7FEFF 		bl	CyEnterCriticalSection
  75              	.LVL4:
 171:.\Generated_Source\PSoC4/QDEC.c **** 
 172:.\Generated_Source\PSoC4/QDEC.c ****     /* Disable interrupts interrupts from Statusi register */
 173:.\Generated_Source\PSoC4/QDEC.c ****     QDEC_SR_AUX_CONTROL &= (uint8) (~QDEC_INTERRUPTS_ENABLE);
  76              		.loc 1 173 0
  77 000a 054A     		ldr	r2, .L5
  78 000c 1378     		ldrb	r3, [r2]
  79 000e 1021     		mov	r1, #16
  80 0010 8B43     		bic	r3, r1
  81 0012 1370     		strb	r3, [r2]
 174:.\Generated_Source\PSoC4/QDEC.c **** 
 175:.\Generated_Source\PSoC4/QDEC.c ****     CyExitCriticalSection(enableInterrupts);
  82              		.loc 1 175 0
  83 0014 FFF7FEFF 		bl	CyExitCriticalSection
  84              	.LVL5:
 176:.\Generated_Source\PSoC4/QDEC.c **** 
 177:.\Generated_Source\PSoC4/QDEC.c ****     #if (QDEC_COUNTER_SIZE == QDEC_COUNTER_SIZE_32_BIT)
 178:.\Generated_Source\PSoC4/QDEC.c ****         CyIntDisable(QDEC_ISR_NUMBER);    /* interrupt disable */
  85              		.loc 1 178 0
  86 0018 0020     		mov	r0, #0
  87 001a FFF7FEFF 		bl	CyIntDisable
  88              	.LVL6:
 179:.\Generated_Source\PSoC4/QDEC.c ****     #endif /* QDEC_COUNTER_SIZE == QDEC_COUNTER_SIZE_32_BIT */
 180:.\Generated_Source\PSoC4/QDEC.c **** }
  89              		.loc 1 180 0
  90              		@ sp needed
  91 001e 08BD     		pop	{r3, pc}
  92              	.L6:
  93              		.align	2
  94              	.L5:
  95 0020 90000F40 		.word	1074725008
  96              		.cfi_endproc
  97              	.LFE3:
  98              		.size	QDEC_Stop, .-QDEC_Stop
  99              		.section	.text.QDEC_GetCounter,"ax",%progbits
 100              		.align	2
 101              		.global	QDEC_GetCounter
 102              		.code	16
 103              		.thumb_func
 104              		.type	QDEC_GetCounter, %function
 105              	QDEC_GetCounter:
ARM GAS  C:\Users\g\AppData\Local\Temp\ccccBdl8.s 			page 6


 106              	.LFB4:
 181:.\Generated_Source\PSoC4/QDEC.c **** 
 182:.\Generated_Source\PSoC4/QDEC.c **** 
 183:.\Generated_Source\PSoC4/QDEC.c **** /*******************************************************************************
 184:.\Generated_Source\PSoC4/QDEC.c **** * Function Name: QDEC_GetCounter
 185:.\Generated_Source\PSoC4/QDEC.c **** ********************************************************************************
 186:.\Generated_Source\PSoC4/QDEC.c **** *
 187:.\Generated_Source\PSoC4/QDEC.c **** * Summary:
 188:.\Generated_Source\PSoC4/QDEC.c **** *  Reports the current value of the counter.
 189:.\Generated_Source\PSoC4/QDEC.c **** *
 190:.\Generated_Source\PSoC4/QDEC.c **** * Parameters:
 191:.\Generated_Source\PSoC4/QDEC.c **** *  None.
 192:.\Generated_Source\PSoC4/QDEC.c **** *
 193:.\Generated_Source\PSoC4/QDEC.c **** * Return:
 194:.\Generated_Source\PSoC4/QDEC.c **** *  The counter value. Return type is signed and per the counter size setting.
 195:.\Generated_Source\PSoC4/QDEC.c **** *  A positive value indicates clockwise movement (B before A).
 196:.\Generated_Source\PSoC4/QDEC.c **** *
 197:.\Generated_Source\PSoC4/QDEC.c **** * Global variables:
 198:.\Generated_Source\PSoC4/QDEC.c **** *  QDEC_count32SoftPart - used to get hi 16 bit for current value
 199:.\Generated_Source\PSoC4/QDEC.c **** *  of the 32-bit counter, when Counter size equal 32-bit.
 200:.\Generated_Source\PSoC4/QDEC.c **** *
 201:.\Generated_Source\PSoC4/QDEC.c **** *******************************************************************************/
 202:.\Generated_Source\PSoC4/QDEC.c **** int32 QDEC_GetCounter(void) 
 203:.\Generated_Source\PSoC4/QDEC.c **** {
 107              		.loc 1 203 0
 108              		.cfi_startproc
 109 0000 10B5     		push	{r4, lr}
 110              		.cfi_def_cfa_offset 8
 111              		.cfi_offset 4, -8
 112              		.cfi_offset 14, -4
 204:.\Generated_Source\PSoC4/QDEC.c ****     int32 count;
 205:.\Generated_Source\PSoC4/QDEC.c ****     uint16 tmpCnt;
 206:.\Generated_Source\PSoC4/QDEC.c **** 
 207:.\Generated_Source\PSoC4/QDEC.c ****     #if (QDEC_COUNTER_SIZE == QDEC_COUNTER_SIZE_32_BIT)
 208:.\Generated_Source\PSoC4/QDEC.c ****         int16 hwCount;
 209:.\Generated_Source\PSoC4/QDEC.c **** 
 210:.\Generated_Source\PSoC4/QDEC.c ****         CyIntDisable(QDEC_ISR_NUMBER);
 113              		.loc 1 210 0
 114 0002 0020     		mov	r0, #0
 115 0004 FFF7FEFF 		bl	CyIntDisable
 116              	.LVL7:
 211:.\Generated_Source\PSoC4/QDEC.c **** 
 212:.\Generated_Source\PSoC4/QDEC.c ****         tmpCnt = QDEC_Cnt16_ReadCounter();
 117              		.loc 1 212 0
 118 0008 FFF7FEFF 		bl	QDEC_Cnt16_ReadCounter
 119              	.LVL8:
 213:.\Generated_Source\PSoC4/QDEC.c ****         hwCount = (int16) ((int32) tmpCnt - (int32) QDEC_COUNTER_INIT_VALUE);
 120              		.loc 1 213 0
 121 000c 054B     		ldr	r3, .L8
 122 000e 9C46     		mov	ip, r3
 123 0010 6044     		add	r0, r0, ip
 124              	.LVL9:
 214:.\Generated_Source\PSoC4/QDEC.c ****         count = QDEC_count32SoftPart + hwCount;
 125              		.loc 1 214 0
 126 0012 00B2     		sxth	r0, r0
 127 0014 044B     		ldr	r3, .L8+4
 128 0016 1C68     		ldr	r4, [r3]
ARM GAS  C:\Users\g\AppData\Local\Temp\ccccBdl8.s 			page 7


 129 0018 0419     		add	r4, r0, r4
 130              	.LVL10:
 215:.\Generated_Source\PSoC4/QDEC.c **** 
 216:.\Generated_Source\PSoC4/QDEC.c ****         CyIntEnable(QDEC_ISR_NUMBER);
 131              		.loc 1 216 0
 132 001a 0020     		mov	r0, #0
 133              	.LVL11:
 134 001c FFF7FEFF 		bl	CyIntEnable
 135              	.LVL12:
 217:.\Generated_Source\PSoC4/QDEC.c ****     #else 
 218:.\Generated_Source\PSoC4/QDEC.c ****         /* (QDEC_COUNTER_SIZE == QDEC_COUNTER_SIZE_8_BIT) || 
 219:.\Generated_Source\PSoC4/QDEC.c ****         *  (QDEC_COUNTER_SIZE == QDEC_COUNTER_SIZE_16_BIT)
 220:.\Generated_Source\PSoC4/QDEC.c ****         */
 221:.\Generated_Source\PSoC4/QDEC.c ****         #if (QDEC_COUNTER_SIZE == QDEC_COUNTER_SIZE_8_BIT)
 222:.\Generated_Source\PSoC4/QDEC.c ****             tmpCnt = QDEC_Cnt8_ReadCounter();
 223:.\Generated_Source\PSoC4/QDEC.c ****         #else /* (QDEC_COUNTER_SIZE == QDEC_COUNTER_SIZE_16_BIT) */
 224:.\Generated_Source\PSoC4/QDEC.c ****             tmpCnt = QDEC_Cnt16_ReadCounter();
 225:.\Generated_Source\PSoC4/QDEC.c ****         #endif  /* QDEC_COUNTER_SIZE == QDEC_COUNTER_SIZE_8_BIT */
 226:.\Generated_Source\PSoC4/QDEC.c **** 
 227:.\Generated_Source\PSoC4/QDEC.c ****         count = (int32) ((int32) tmpCnt -
 228:.\Generated_Source\PSoC4/QDEC.c ****                 (int32) QDEC_COUNTER_INIT_VALUE);
 229:.\Generated_Source\PSoC4/QDEC.c **** 
 230:.\Generated_Source\PSoC4/QDEC.c ****     #endif /* QDEC_COUNTER_SIZE == QDEC_COUNTER_SIZE_32_BIT */ 
 231:.\Generated_Source\PSoC4/QDEC.c **** 
 232:.\Generated_Source\PSoC4/QDEC.c ****     return (count);
 233:.\Generated_Source\PSoC4/QDEC.c **** }
 136              		.loc 1 233 0
 137 0020 201C     		mov	r0, r4
 138              		@ sp needed
 139              	.LVL13:
 140 0022 10BD     		pop	{r4, pc}
 141              	.L9:
 142              		.align	2
 143              	.L8:
 144 0024 0080FFFF 		.word	-32768
 145 0028 00000000 		.word	QDEC_count32SoftPart
 146              		.cfi_endproc
 147              	.LFE4:
 148              		.size	QDEC_GetCounter, .-QDEC_GetCounter
 149              		.section	.text.QDEC_SetCounter,"ax",%progbits
 150              		.align	2
 151              		.global	QDEC_SetCounter
 152              		.code	16
 153              		.thumb_func
 154              		.type	QDEC_SetCounter, %function
 155              	QDEC_SetCounter:
 156              	.LFB5:
 234:.\Generated_Source\PSoC4/QDEC.c **** 
 235:.\Generated_Source\PSoC4/QDEC.c **** 
 236:.\Generated_Source\PSoC4/QDEC.c **** /*******************************************************************************
 237:.\Generated_Source\PSoC4/QDEC.c **** * Function Name: QDEC_SetCounter
 238:.\Generated_Source\PSoC4/QDEC.c **** ********************************************************************************
 239:.\Generated_Source\PSoC4/QDEC.c **** *
 240:.\Generated_Source\PSoC4/QDEC.c **** * Summary:
 241:.\Generated_Source\PSoC4/QDEC.c **** *  Sets the current value of the counter.
 242:.\Generated_Source\PSoC4/QDEC.c **** *
 243:.\Generated_Source\PSoC4/QDEC.c **** * Parameters:
ARM GAS  C:\Users\g\AppData\Local\Temp\ccccBdl8.s 			page 8


 244:.\Generated_Source\PSoC4/QDEC.c **** *  value:  The new value. Parameter type is signed and per the counter size
 245:.\Generated_Source\PSoC4/QDEC.c **** *  setting.
 246:.\Generated_Source\PSoC4/QDEC.c **** *
 247:.\Generated_Source\PSoC4/QDEC.c **** * Return:
 248:.\Generated_Source\PSoC4/QDEC.c **** *  None.
 249:.\Generated_Source\PSoC4/QDEC.c **** *
 250:.\Generated_Source\PSoC4/QDEC.c **** * Global variables:
 251:.\Generated_Source\PSoC4/QDEC.c **** *  QDEC_count32SoftPart - modified to set hi 16 bit for current
 252:.\Generated_Source\PSoC4/QDEC.c **** *  value of the 32-bit counter, when Counter size equal 32-bit.
 253:.\Generated_Source\PSoC4/QDEC.c **** *
 254:.\Generated_Source\PSoC4/QDEC.c **** * Reentrant:
 255:.\Generated_Source\PSoC4/QDEC.c **** *  No.
 256:.\Generated_Source\PSoC4/QDEC.c **** *
 257:.\Generated_Source\PSoC4/QDEC.c **** *******************************************************************************/
 258:.\Generated_Source\PSoC4/QDEC.c **** void QDEC_SetCounter(int32 value) 
 259:.\Generated_Source\PSoC4/QDEC.c **** {
 157              		.loc 1 259 0
 158              		.cfi_startproc
 159              	.LVL14:
 160 0000 10B5     		push	{r4, lr}
 161              		.cfi_def_cfa_offset 8
 162              		.cfi_offset 4, -8
 163              		.cfi_offset 14, -4
 164 0002 041C     		mov	r4, r0
 260:.\Generated_Source\PSoC4/QDEC.c ****     #if ((QDEC_COUNTER_SIZE == QDEC_COUNTER_SIZE_8_BIT) || \
 261:.\Generated_Source\PSoC4/QDEC.c ****          (QDEC_COUNTER_SIZE == QDEC_COUNTER_SIZE_16_BIT))
 262:.\Generated_Source\PSoC4/QDEC.c ****         uint16 count;
 263:.\Generated_Source\PSoC4/QDEC.c ****         
 264:.\Generated_Source\PSoC4/QDEC.c ****         if (value >= 0)
 265:.\Generated_Source\PSoC4/QDEC.c ****         {
 266:.\Generated_Source\PSoC4/QDEC.c ****             count = (uint16) value + QDEC_COUNTER_INIT_VALUE;
 267:.\Generated_Source\PSoC4/QDEC.c ****         }
 268:.\Generated_Source\PSoC4/QDEC.c ****         else
 269:.\Generated_Source\PSoC4/QDEC.c ****         {
 270:.\Generated_Source\PSoC4/QDEC.c ****             count = QDEC_COUNTER_INIT_VALUE - (uint16)(-value);
 271:.\Generated_Source\PSoC4/QDEC.c ****         }
 272:.\Generated_Source\PSoC4/QDEC.c ****         #if (QDEC_COUNTER_SIZE == QDEC_COUNTER_SIZE_8_BIT)
 273:.\Generated_Source\PSoC4/QDEC.c ****             QDEC_Cnt8_WriteCounter(count);
 274:.\Generated_Source\PSoC4/QDEC.c ****         #else /* (QDEC_COUNTER_SIZE == QDEC_COUNTER_SIZE_16_BIT) */
 275:.\Generated_Source\PSoC4/QDEC.c ****             QDEC_Cnt16_WriteCounter(count);
 276:.\Generated_Source\PSoC4/QDEC.c ****         #endif  /* QDEC_COUNTER_SIZE == QDEC_COUNTER_SIZE_8_BIT */
 277:.\Generated_Source\PSoC4/QDEC.c ****     #else /* (QDEC_COUNTER_SIZE == QDEC_COUNTER_SIZE_32_BIT) */
 278:.\Generated_Source\PSoC4/QDEC.c ****         CyIntDisable(QDEC_ISR_NUMBER);
 165              		.loc 1 278 0
 166 0004 0020     		mov	r0, #0
 167              	.LVL15:
 168 0006 FFF7FEFF 		bl	CyIntDisable
 169              	.LVL16:
 279:.\Generated_Source\PSoC4/QDEC.c **** 
 280:.\Generated_Source\PSoC4/QDEC.c ****         QDEC_Cnt16_WriteCounter(QDEC_COUNTER_INIT_VALUE);
 170              		.loc 1 280 0
 171 000a 8020     		mov	r0, #128
 172 000c 0002     		lsl	r0, r0, #8
 173 000e FFF7FEFF 		bl	QDEC_Cnt16_WriteCounter
 174              	.LVL17:
 281:.\Generated_Source\PSoC4/QDEC.c ****         QDEC_count32SoftPart = value;
 175              		.loc 1 281 0
ARM GAS  C:\Users\g\AppData\Local\Temp\ccccBdl8.s 			page 9


 176 0012 034B     		ldr	r3, .L11
 177 0014 1C60     		str	r4, [r3]
 282:.\Generated_Source\PSoC4/QDEC.c **** 
 283:.\Generated_Source\PSoC4/QDEC.c ****         CyIntEnable(QDEC_ISR_NUMBER);
 178              		.loc 1 283 0
 179 0016 0020     		mov	r0, #0
 180 0018 FFF7FEFF 		bl	CyIntEnable
 181              	.LVL18:
 284:.\Generated_Source\PSoC4/QDEC.c ****     #endif  /* (QDEC_COUNTER_SIZE == QDEC_COUNTER_SIZE_8_BIT) ||
 285:.\Generated_Source\PSoC4/QDEC.c ****              * (QDEC_COUNTER_SIZE == QDEC_COUNTER_SIZE_16_BIT)
 286:.\Generated_Source\PSoC4/QDEC.c ****              */
 287:.\Generated_Source\PSoC4/QDEC.c **** }
 182              		.loc 1 287 0
 183              		@ sp needed
 184              	.LVL19:
 185 001c 10BD     		pop	{r4, pc}
 186              	.L12:
 187 001e C046     		.align	2
 188              	.L11:
 189 0020 00000000 		.word	QDEC_count32SoftPart
 190              		.cfi_endproc
 191              	.LFE5:
 192              		.size	QDEC_SetCounter, .-QDEC_SetCounter
 193              		.section	.text.QDEC_GetEvents,"ax",%progbits
 194              		.align	2
 195              		.global	QDEC_GetEvents
 196              		.code	16
 197              		.thumb_func
 198              		.type	QDEC_GetEvents, %function
 199              	QDEC_GetEvents:
 200              	.LFB6:
 288:.\Generated_Source\PSoC4/QDEC.c **** 
 289:.\Generated_Source\PSoC4/QDEC.c **** 
 290:.\Generated_Source\PSoC4/QDEC.c **** /*******************************************************************************
 291:.\Generated_Source\PSoC4/QDEC.c **** * Function Name: QDEC_GetEvents
 292:.\Generated_Source\PSoC4/QDEC.c **** ********************************************************************************
 293:.\Generated_Source\PSoC4/QDEC.c **** * 
 294:.\Generated_Source\PSoC4/QDEC.c **** * Summary:
 295:.\Generated_Source\PSoC4/QDEC.c **** *   Reports the current status of events. This function clears the bits of the 
 296:.\Generated_Source\PSoC4/QDEC.c **** *   status register.
 297:.\Generated_Source\PSoC4/QDEC.c **** *
 298:.\Generated_Source\PSoC4/QDEC.c **** * Parameters:
 299:.\Generated_Source\PSoC4/QDEC.c **** *  None.
 300:.\Generated_Source\PSoC4/QDEC.c **** *
 301:.\Generated_Source\PSoC4/QDEC.c **** * Return:
 302:.\Generated_Source\PSoC4/QDEC.c **** *  The events, as bits in an unsigned 8-bit value:
 303:.\Generated_Source\PSoC4/QDEC.c **** *    Bit      Description
 304:.\Generated_Source\PSoC4/QDEC.c **** *     0        Counter overflow.
 305:.\Generated_Source\PSoC4/QDEC.c **** *     1        Counter underflow.
 306:.\Generated_Source\PSoC4/QDEC.c **** *     2        Counter reset due to index, if index input is used.
 307:.\Generated_Source\PSoC4/QDEC.c **** *     3        Invalid A, B inputs state transition.
 308:.\Generated_Source\PSoC4/QDEC.c **** *
 309:.\Generated_Source\PSoC4/QDEC.c **** *******************************************************************************/
 310:.\Generated_Source\PSoC4/QDEC.c **** uint8 QDEC_GetEvents(void) 
 311:.\Generated_Source\PSoC4/QDEC.c **** {
 201              		.loc 1 311 0
 202              		.cfi_startproc
ARM GAS  C:\Users\g\AppData\Local\Temp\ccccBdl8.s 			page 10


 312:.\Generated_Source\PSoC4/QDEC.c ****     return (QDEC_STATUS_REG & QDEC_INIT_INT_MASK);
 203              		.loc 1 312 0
 204 0000 024B     		ldr	r3, .L14
 205 0002 1878     		ldrb	r0, [r3]
 206 0004 0F23     		mov	r3, #15
 207 0006 1840     		and	r0, r3
 313:.\Generated_Source\PSoC4/QDEC.c **** }
 208              		.loc 1 313 0
 209              		@ sp needed
 210 0008 7047     		bx	lr
 211              	.L15:
 212 000a C046     		.align	2
 213              	.L14:
 214 000c 60000F40 		.word	1074724960
 215              		.cfi_endproc
 216              	.LFE6:
 217              		.size	QDEC_GetEvents, .-QDEC_GetEvents
 218              		.section	.text.QDEC_SetInterruptMask,"ax",%progbits
 219              		.align	2
 220              		.global	QDEC_SetInterruptMask
 221              		.code	16
 222              		.thumb_func
 223              		.type	QDEC_SetInterruptMask, %function
 224              	QDEC_SetInterruptMask:
 225              	.LFB7:
 314:.\Generated_Source\PSoC4/QDEC.c **** 
 315:.\Generated_Source\PSoC4/QDEC.c **** 
 316:.\Generated_Source\PSoC4/QDEC.c **** /*******************************************************************************
 317:.\Generated_Source\PSoC4/QDEC.c **** * Function Name: QDEC_SetInterruptMask
 318:.\Generated_Source\PSoC4/QDEC.c **** ********************************************************************************
 319:.\Generated_Source\PSoC4/QDEC.c **** *
 320:.\Generated_Source\PSoC4/QDEC.c **** * Summary:
 321:.\Generated_Source\PSoC4/QDEC.c **** *  Enables / disables interrupts due to the events.
 322:.\Generated_Source\PSoC4/QDEC.c **** *  For the 32-bit counter, the overflow, underflow and reset interrupts cannot
 323:.\Generated_Source\PSoC4/QDEC.c **** *  be disabled, these bits are ignored.
 324:.\Generated_Source\PSoC4/QDEC.c **** *
 325:.\Generated_Source\PSoC4/QDEC.c **** * Parameters:
 326:.\Generated_Source\PSoC4/QDEC.c **** *  mask: Enable / disable bits in an 8-bit value, where 1 enables the interrupt.
 327:.\Generated_Source\PSoC4/QDEC.c **** *
 328:.\Generated_Source\PSoC4/QDEC.c **** * Return:
 329:.\Generated_Source\PSoC4/QDEC.c **** *  None.
 330:.\Generated_Source\PSoC4/QDEC.c **** *
 331:.\Generated_Source\PSoC4/QDEC.c **** *******************************************************************************/
 332:.\Generated_Source\PSoC4/QDEC.c **** void QDEC_SetInterruptMask(uint8 mask) 
 333:.\Generated_Source\PSoC4/QDEC.c **** {
 226              		.loc 1 333 0
 227              		.cfi_startproc
 228              	.LVL20:
 334:.\Generated_Source\PSoC4/QDEC.c ****     #if (QDEC_COUNTER_SIZE == QDEC_COUNTER_SIZE_32_BIT)
 335:.\Generated_Source\PSoC4/QDEC.c ****         /* Underflow, Overflow and Reset interrupts for 32-bit Counter are always enable */
 336:.\Generated_Source\PSoC4/QDEC.c ****         mask |= (QDEC_COUNTER_OVERFLOW | QDEC_COUNTER_UNDERFLOW |
 229              		.loc 1 336 0
 230 0000 0723     		mov	r3, #7
 231 0002 1843     		orr	r0, r3
 232              	.LVL21:
 337:.\Generated_Source\PSoC4/QDEC.c ****                  QDEC_COUNTER_RESET);
 338:.\Generated_Source\PSoC4/QDEC.c ****     #endif /* QDEC_COUNTER_SIZE == QDEC_COUNTER_SIZE_32_BIT */
ARM GAS  C:\Users\g\AppData\Local\Temp\ccccBdl8.s 			page 11


 339:.\Generated_Source\PSoC4/QDEC.c **** 
 340:.\Generated_Source\PSoC4/QDEC.c ****     QDEC_STATUS_MASK = mask;
 233              		.loc 1 340 0
 234 0004 014B     		ldr	r3, .L17
 235 0006 1870     		strb	r0, [r3]
 341:.\Generated_Source\PSoC4/QDEC.c **** }
 236              		.loc 1 341 0
 237              		@ sp needed
 238 0008 7047     		bx	lr
 239              	.L18:
 240 000a C046     		.align	2
 241              	.L17:
 242 000c 80000F40 		.word	1074724992
 243              		.cfi_endproc
 244              	.LFE7:
 245              		.size	QDEC_SetInterruptMask, .-QDEC_SetInterruptMask
 246              		.section	.text.QDEC_Enable,"ax",%progbits
 247              		.align	2
 248              		.global	QDEC_Enable
 249              		.code	16
 250              		.thumb_func
 251              		.type	QDEC_Enable, %function
 252              	QDEC_Enable:
 253              	.LFB1:
  71:.\Generated_Source\PSoC4/QDEC.c ****     uint8 enableInterrupts;
 254              		.loc 1 71 0
 255              		.cfi_startproc
 256 0000 08B5     		push	{r3, lr}
 257              		.cfi_def_cfa_offset 8
 258              		.cfi_offset 3, -8
 259              		.cfi_offset 14, -4
  74:.\Generated_Source\PSoC4/QDEC.c **** 
 260              		.loc 1 74 0
 261 0002 0F20     		mov	r0, #15
 262 0004 FFF7FEFF 		bl	QDEC_SetInterruptMask
 263              	.LVL22:
  77:.\Generated_Source\PSoC4/QDEC.c ****     
 264              		.loc 1 77 0
 265 0008 FFF7FEFF 		bl	QDEC_GetEvents
 266              	.LVL23:
  79:.\Generated_Source\PSoC4/QDEC.c **** 
 267              		.loc 1 79 0
 268 000c FFF7FEFF 		bl	CyEnterCriticalSection
 269              	.LVL24:
  82:.\Generated_Source\PSoC4/QDEC.c **** 
 270              		.loc 1 82 0
 271 0010 054A     		ldr	r2, .L20
 272 0012 1178     		ldrb	r1, [r2]
 273 0014 1023     		mov	r3, #16
 274 0016 0B43     		orr	r3, r1
 275 0018 1370     		strb	r3, [r2]
  84:.\Generated_Source\PSoC4/QDEC.c **** 
 276              		.loc 1 84 0
 277 001a FFF7FEFF 		bl	CyExitCriticalSection
 278              	.LVL25:
  88:.\Generated_Source\PSoC4/QDEC.c ****     #endif /* QDEC_COUNTER_SIZE == QDEC_COUNTER_SIZE_32_BIT */
 279              		.loc 1 88 0
ARM GAS  C:\Users\g\AppData\Local\Temp\ccccBdl8.s 			page 12


 280 001e 0020     		mov	r0, #0
 281 0020 FFF7FEFF 		bl	CyIntEnable
 282              	.LVL26:
  90:.\Generated_Source\PSoC4/QDEC.c **** 
 283              		.loc 1 90 0
 284              		@ sp needed
 285 0024 08BD     		pop	{r3, pc}
 286              	.L21:
 287 0026 C046     		.align	2
 288              	.L20:
 289 0028 90000F40 		.word	1074725008
 290              		.cfi_endproc
 291              	.LFE1:
 292              		.size	QDEC_Enable, .-QDEC_Enable
 293              		.section	.text.QDEC_Start,"ax",%progbits
 294              		.align	2
 295              		.global	QDEC_Start
 296              		.code	16
 297              		.thumb_func
 298              		.type	QDEC_Start, %function
 299              	QDEC_Start:
 300              	.LFB2:
 117:.\Generated_Source\PSoC4/QDEC.c ****     #if (QDEC_COUNTER_SIZE == QDEC_COUNTER_SIZE_8_BIT)
 301              		.loc 1 117 0
 302              		.cfi_startproc
 303 0000 08B5     		push	{r3, lr}
 304              		.cfi_def_cfa_offset 8
 305              		.cfi_offset 3, -8
 306              		.cfi_offset 14, -4
 125:.\Generated_Source\PSoC4/QDEC.c ****         QDEC_Cnt16_WriteCounter(QDEC_COUNTER_INIT_VALUE);
 307              		.loc 1 125 0
 308 0002 FFF7FEFF 		bl	QDEC_Cnt16_Start
 309              	.LVL27:
 126:.\Generated_Source\PSoC4/QDEC.c ****     #endif /* QDEC_COUNTER_SIZE == QDEC_COUNTER_SIZE_8_BIT */
 310              		.loc 1 126 0
 311 0006 8020     		mov	r0, #128
 312 0008 0002     		lsl	r0, r0, #8
 313 000a FFF7FEFF 		bl	QDEC_Cnt16_WriteCounter
 314              	.LVL28:
 130:.\Generated_Source\PSoC4/QDEC.c ****     #endif /* QDEC_COUNTER_SIZE == QDEC_COUNTER_SIZE_32_BIT */
 315              		.loc 1 130 0
 316 000e 0022     		mov	r2, #0
 317 0010 064B     		ldr	r3, .L24
 318 0012 1A60     		str	r2, [r3]
 133:.\Generated_Source\PSoC4/QDEC.c ****     {
 319              		.loc 1 133 0
 320 0014 064B     		ldr	r3, .L24+4
 321 0016 1B78     		ldrb	r3, [r3]
 322 0018 002B     		cmp	r3, #0
 323 001a 04D1     		bne	.L23
 135:.\Generated_Source\PSoC4/QDEC.c ****         QDEC_initVar = 1u;
 324              		.loc 1 135 0
 325 001c FFF7FEFF 		bl	QDEC_Init
 326              	.LVL29:
 136:.\Generated_Source\PSoC4/QDEC.c ****     }
 327              		.loc 1 136 0
 328 0020 0122     		mov	r2, #1
ARM GAS  C:\Users\g\AppData\Local\Temp\ccccBdl8.s 			page 13


 329 0022 034B     		ldr	r3, .L24+4
 330 0024 1A70     		strb	r2, [r3]
 331              	.L23:
 139:.\Generated_Source\PSoC4/QDEC.c **** }
 332              		.loc 1 139 0
 333 0026 FFF7FEFF 		bl	QDEC_Enable
 334              	.LVL30:
 140:.\Generated_Source\PSoC4/QDEC.c **** 
 335              		.loc 1 140 0
 336              		@ sp needed
 337 002a 08BD     		pop	{r3, pc}
 338              	.L25:
 339              		.align	2
 340              	.L24:
 341 002c 00000000 		.word	QDEC_count32SoftPart
 342 0030 00000000 		.word	.LANCHOR0
 343              		.cfi_endproc
 344              	.LFE2:
 345              		.size	QDEC_Start, .-QDEC_Start
 346              		.section	.text.QDEC_GetInterruptMask,"ax",%progbits
 347              		.align	2
 348              		.global	QDEC_GetInterruptMask
 349              		.code	16
 350              		.thumb_func
 351              		.type	QDEC_GetInterruptMask, %function
 352              	QDEC_GetInterruptMask:
 353              	.LFB8:
 342:.\Generated_Source\PSoC4/QDEC.c **** 
 343:.\Generated_Source\PSoC4/QDEC.c **** 
 344:.\Generated_Source\PSoC4/QDEC.c **** /*******************************************************************************
 345:.\Generated_Source\PSoC4/QDEC.c **** * Function Name: QDEC_GetInterruptMask
 346:.\Generated_Source\PSoC4/QDEC.c **** ********************************************************************************
 347:.\Generated_Source\PSoC4/QDEC.c **** *
 348:.\Generated_Source\PSoC4/QDEC.c **** * Summary:
 349:.\Generated_Source\PSoC4/QDEC.c **** *  Reports the current interrupt mask settings.
 350:.\Generated_Source\PSoC4/QDEC.c **** *
 351:.\Generated_Source\PSoC4/QDEC.c **** * Parameters:
 352:.\Generated_Source\PSoC4/QDEC.c **** *  None.
 353:.\Generated_Source\PSoC4/QDEC.c **** *
 354:.\Generated_Source\PSoC4/QDEC.c **** * Return:
 355:.\Generated_Source\PSoC4/QDEC.c **** *  Enable / disable bits in an 8-bit value, where 1 enables the interrupt.
 356:.\Generated_Source\PSoC4/QDEC.c **** *  For the 32-bit counter, the overflow, underflow and reset enable bits are
 357:.\Generated_Source\PSoC4/QDEC.c **** *  always set.
 358:.\Generated_Source\PSoC4/QDEC.c **** *
 359:.\Generated_Source\PSoC4/QDEC.c **** *******************************************************************************/
 360:.\Generated_Source\PSoC4/QDEC.c **** uint8 QDEC_GetInterruptMask(void) 
 361:.\Generated_Source\PSoC4/QDEC.c **** {
 354              		.loc 1 361 0
 355              		.cfi_startproc
 362:.\Generated_Source\PSoC4/QDEC.c ****     return (QDEC_STATUS_MASK & QDEC_INIT_INT_MASK);
 356              		.loc 1 362 0
 357 0000 024B     		ldr	r3, .L27
 358 0002 1878     		ldrb	r0, [r3]
 359 0004 0F23     		mov	r3, #15
 360 0006 1840     		and	r0, r3
 363:.\Generated_Source\PSoC4/QDEC.c **** }
 361              		.loc 1 363 0
ARM GAS  C:\Users\g\AppData\Local\Temp\ccccBdl8.s 			page 14


 362              		@ sp needed
 363 0008 7047     		bx	lr
 364              	.L28:
 365 000a C046     		.align	2
 366              	.L27:
 367 000c 80000F40 		.word	1074724992
 368              		.cfi_endproc
 369              	.LFE8:
 370              		.size	QDEC_GetInterruptMask, .-QDEC_GetInterruptMask
 371              		.global	QDEC_initVar
 372              		.bss
 373              		.set	.LANCHOR0,. + 0
 374              		.type	QDEC_initVar, %object
 375              		.size	QDEC_initVar, 1
 376              	QDEC_initVar:
 377 0000 00       		.space	1
 378              		.text
 379              	.Letext0:
 380              		.file 2 ".\\Generated_Source\\PSoC4\\cytypes.h"
 381              		.file 3 ".\\Generated_Source\\PSoC4\\QDEC_PVT.h"
 382              		.file 4 ".\\Generated_Source\\PSoC4\\CyLib.h"
 383              		.file 5 ".\\Generated_Source\\PSoC4\\QDEC_Cnt16.h"